
hello.elf:     file format elf32-littleriscv
hello.elf
architecture: riscv:rv32, flags 0x00000112:
EXEC_P, HAS_SYMS, D_PAGED
start address 0x80000000

Program Header:
0x70000003 off    0x00002e50 vaddr 0x00000000 paddr 0x00000000 align 2**0
         filesz 0x0000004b memsz 0x00000000 flags r--
    LOAD off    0x00001000 vaddr 0x80000000 paddr 0x80000000 align 2**12
         filesz 0x00001e50 memsz 0x00001e50 flags r-x

Sections:
Idx Name              Size      VMA       LMA       File off  Algn  Flags
  0 .init             0000000c  80000000  80000000  00001000  2**3  CONTENTS, ALLOC, LOAD, READONLY, CODE
  1 .text             00001a20  80000010  80000010  00001010  2**3  CONTENTS, ALLOC, LOAD, READONLY, CODE
  2 .rodata           00000420  80001a30  80001a30  00002a30  2**3  CONTENTS, ALLOC, LOAD, READONLY, DATA
  3 .data             00000000  80001e50  80001e50  00002e50  2**3  CONTENTS, ALLOC, LOAD, DATA
  4 .riscv.attributes 0000004b  00000000  00000000  00002e50  2**0  CONTENTS, READONLY
  5 .comment          00000033  00000000  00000000  00002e9b  2**0  CONTENTS, READONLY
SYMBOL TABLE:
80000000 l    d  .init	00000000 .init
80000010 l    d  .text	00000000 .text
80001a30 l    d  .rodata	00000000 .rodata
80001e50 l    d  .data	00000000 .data
00000000 l    d  .riscv.attributes	00000000 .riscv.attributes
00000000 l    d  .comment	00000000 .comment
00000000 l    df *ABS*	00000000 ccgbqGaH.o
80000008 l       .init	00000000 _end
00000000 l    df *ABS*	00000000 hello.c
00000000 l    df *ABS*	00000000 libc_a-itoa.o
00000000 l    df *ABS*	00000000 libc_a-utoa.o
00000000 l    df *ABS*	00000000 libc_a-strcat.o
00000000 l    df *ABS*	00000000 libc_a-strncat.o
00000000 l    df *ABS*	00000000 libc_a-memset.o
00000000 l    df *ABS*	00000000 libc_a-strlen.o
00000000 l    df *ABS*	00000000 libc_a-strcpy.o
00000000 l    df *ABS*	00000000 _udivdi3.o
00000000 l    df *ABS*	00000000 _umoddi3.o
00000000 l    df *ABS*	00000000 muldi3.o
00000000 l    df *ABS*	00000000 div.o
80000bb0 g     F .text	000000a4 strcpy
8000048c g     F .text	000000b0 printf
80001984 g     F .text	00000048 .hidden __hidden___udivsi3
80001984 g     F .text	00000048 .hidden __udivsi3
80000734 g     F .text	00000070 itoa
80001308 g     F .text	00000650 .hidden __umoddi3
80000c54 g     F .text	000006b4 .hidden __udivdi3
800008f8 g     F .text	00000004 utoa
800008fc g     F .text	000000a0 strcat
800019cc g     F .text	00000010 .hidden __umodsi3
80000010 g     F .text	00000068 terminal_write
800001d0 g     F .text	000002bc format_to_str
80000000 g       .init	00000000 _start
80001958 g     F .text	00000024 .hidden __mulsi3
8000099c g     F .text	000000ac strncat
800007a4 g     F .text	00000154 __utoa
80000a48 g     F .text	000000dc memset
8000053c g     F .text	000001f8 main
8000197c g     F .text	00000084 .hidden __divsi3
80000078 g     F .text	00000158 ulltoa
80001d50 g     O .rodata	00000100 .hidden __clz_tab
80001a00 g     F .text	00000030 .hidden __modsi3
80000b24 g     F .text	0000008c strlen



Disassembly of section .init:

80000000 <_start>:
_start():
80000000:	80400137          	lui	sp,0x80400
80000004:	538000ef          	jal	8000053c <main>

80000008 <_end>:
_end():
80000008:	000000ef          	jal	80000008 <_end>

Disassembly of section .text:

80000010 <terminal_write>:
terminal_write():
80000010:	fd010113          	addi	sp,sp,-48 # 803fffd0 <__clz_tab+0x3fe280>
80000014:	02112623          	sw	ra,44(sp)
80000018:	02812423          	sw	s0,40(sp)
8000001c:	03010413          	addi	s0,sp,48
80000020:	fca42e23          	sw	a0,-36(s0)
80000024:	fcb42c23          	sw	a1,-40(s0)
80000028:	fe042623          	sw	zero,-20(s0)
8000002c:	0280006f          	j	80000054 <terminal_write+0x44>
80000030:	fec42783          	lw	a5,-20(s0)
80000034:	fdc42703          	lw	a4,-36(s0)
80000038:	00f70733          	add	a4,a4,a5
8000003c:	100007b7          	lui	a5,0x10000
80000040:	00074703          	lbu	a4,0(a4)
80000044:	00e78023          	sb	a4,0(a5) # 10000000 <_start-0x70000000>
80000048:	fec42783          	lw	a5,-20(s0)
8000004c:	00178793          	addi	a5,a5,1
80000050:	fef42623          	sw	a5,-20(s0)
80000054:	fec42703          	lw	a4,-20(s0)
80000058:	fd842783          	lw	a5,-40(s0)
8000005c:	fcf74ae3          	blt	a4,a5,80000030 <terminal_write+0x20>
80000060:	00000013          	nop
80000064:	00000013          	nop
80000068:	02c12083          	lw	ra,44(sp)
8000006c:	02812403          	lw	s0,40(sp)
80000070:	03010113          	addi	sp,sp,48
80000074:	00008067          	ret

80000078 <ulltoa>:
ulltoa():
80000078:	fc010113          	addi	sp,sp,-64
8000007c:	02112e23          	sw	ra,60(sp)
80000080:	02812c23          	sw	s0,56(sp)
80000084:	04010413          	addi	s0,sp,64
80000088:	fca42423          	sw	a0,-56(s0)
8000008c:	fcb42623          	sw	a1,-52(s0)
80000090:	fcc42223          	sw	a2,-60(s0)
80000094:	fe042623          	sw	zero,-20(s0)
80000098:	fc842783          	lw	a5,-56(s0)
8000009c:	fcc42703          	lw	a4,-52(s0)
800000a0:	00e7e7b3          	or	a5,a5,a4
800000a4:	08079c63          	bnez	a5,8000013c <ulltoa+0xc4>
800000a8:	fc442783          	lw	a5,-60(s0)
800000ac:	03000713          	li	a4,48
800000b0:	00e78023          	sb	a4,0(a5)
800000b4:	fc442783          	lw	a5,-60(s0)
800000b8:	00178793          	addi	a5,a5,1
800000bc:	00078023          	sb	zero,0(a5)
800000c0:	00100793          	li	a5,1
800000c4:	0f80006f          	j	800001bc <ulltoa+0x144>
800000c8:	fc842703          	lw	a4,-56(s0)
800000cc:	fcc42783          	lw	a5,-52(s0)
800000d0:	00a00613          	li	a2,10
800000d4:	00000693          	li	a3,0
800000d8:	00070513          	mv	a0,a4
800000dc:	00078593          	mv	a1,a5
800000e0:	228010ef          	jal	80001308 <__umoddi3>
800000e4:	00050713          	mv	a4,a0
800000e8:	00058793          	mv	a5,a1
800000ec:	0ff77713          	zext.b	a4,a4
800000f0:	fec42783          	lw	a5,-20(s0)
800000f4:	00178693          	addi	a3,a5,1
800000f8:	fed42623          	sw	a3,-20(s0)
800000fc:	03070713          	addi	a4,a4,48
80000100:	0ff77713          	zext.b	a4,a4
80000104:	ff078793          	addi	a5,a5,-16
80000108:	008787b3          	add	a5,a5,s0
8000010c:	fee78023          	sb	a4,-32(a5)
80000110:	fc842703          	lw	a4,-56(s0)
80000114:	fcc42783          	lw	a5,-52(s0)
80000118:	00a00613          	li	a2,10
8000011c:	00000693          	li	a3,0
80000120:	00070513          	mv	a0,a4
80000124:	00078593          	mv	a1,a5
80000128:	32d000ef          	jal	80000c54 <__udivdi3>
8000012c:	00050713          	mv	a4,a0
80000130:	00058793          	mv	a5,a1
80000134:	fce42423          	sw	a4,-56(s0)
80000138:	fcf42623          	sw	a5,-52(s0)
8000013c:	fc842783          	lw	a5,-56(s0)
80000140:	fcc42703          	lw	a4,-52(s0)
80000144:	00e7e7b3          	or	a5,a5,a4
80000148:	f80790e3          	bnez	a5,800000c8 <ulltoa+0x50>
8000014c:	fec42783          	lw	a5,-20(s0)
80000150:	ff078793          	addi	a5,a5,-16
80000154:	008787b3          	add	a5,a5,s0
80000158:	fe078023          	sb	zero,-32(a5)
8000015c:	fe042423          	sw	zero,-24(s0)
80000160:	03c0006f          	j	8000019c <ulltoa+0x124>
80000164:	fec42703          	lw	a4,-20(s0)
80000168:	fe842783          	lw	a5,-24(s0)
8000016c:	40f707b3          	sub	a5,a4,a5
80000170:	fff78713          	addi	a4,a5,-1
80000174:	fe842783          	lw	a5,-24(s0)
80000178:	fc442683          	lw	a3,-60(s0)
8000017c:	00f687b3          	add	a5,a3,a5
80000180:	ff070713          	addi	a4,a4,-16
80000184:	00870733          	add	a4,a4,s0
80000188:	fe074703          	lbu	a4,-32(a4)
8000018c:	00e78023          	sb	a4,0(a5)
80000190:	fe842783          	lw	a5,-24(s0)
80000194:	00178793          	addi	a5,a5,1
80000198:	fef42423          	sw	a5,-24(s0)
8000019c:	fe842703          	lw	a4,-24(s0)
800001a0:	fec42783          	lw	a5,-20(s0)
800001a4:	fcf740e3          	blt	a4,a5,80000164 <ulltoa+0xec>
800001a8:	fec42783          	lw	a5,-20(s0)
800001ac:	fc442703          	lw	a4,-60(s0)
800001b0:	00f707b3          	add	a5,a4,a5
800001b4:	00078023          	sb	zero,0(a5)
800001b8:	fec42783          	lw	a5,-20(s0)
800001bc:	00078513          	mv	a0,a5
800001c0:	03c12083          	lw	ra,60(sp)
800001c4:	03812403          	lw	s0,56(sp)
800001c8:	04010113          	addi	sp,sp,64
800001cc:	00008067          	ret

800001d0 <format_to_str>:
format_to_str():
800001d0:	fb010113          	addi	sp,sp,-80
800001d4:	04112623          	sw	ra,76(sp)
800001d8:	04812423          	sw	s0,72(sp)
800001dc:	04912223          	sw	s1,68(sp)
800001e0:	05010413          	addi	s0,sp,80
800001e4:	faa42e23          	sw	a0,-68(s0)
800001e8:	fab42c23          	sw	a1,-72(s0)
800001ec:	fac42a23          	sw	a2,-76(s0)
800001f0:	fbc42783          	lw	a5,-68(s0)
800001f4:	00078023          	sb	zero,0(a5)
800001f8:	26c0006f          	j	80000464 <format_to_str+0x294>
800001fc:	fb842783          	lw	a5,-72(s0)
80000200:	0007c703          	lbu	a4,0(a5)
80000204:	02500793          	li	a5,37
80000208:	00f70c63          	beq	a4,a5,80000220 <format_to_str+0x50>
8000020c:	00100613          	li	a2,1
80000210:	fb842583          	lw	a1,-72(s0)
80000214:	fbc42503          	lw	a0,-68(s0)
80000218:	784000ef          	jal	8000099c <strncat>
8000021c:	23c0006f          	j	80000458 <format_to_str+0x288>
80000220:	fb842783          	lw	a5,-72(s0)
80000224:	00178793          	addi	a5,a5,1
80000228:	faf42c23          	sw	a5,-72(s0)
8000022c:	fb842783          	lw	a5,-72(s0)
80000230:	0007c703          	lbu	a4,0(a5)
80000234:	07300793          	li	a5,115
80000238:	02f71263          	bne	a4,a5,8000025c <format_to_str+0x8c>
8000023c:	fb442783          	lw	a5,-76(s0)
80000240:	00478713          	addi	a4,a5,4
80000244:	fae42a23          	sw	a4,-76(s0)
80000248:	0007a783          	lw	a5,0(a5)
8000024c:	00078593          	mv	a1,a5
80000250:	fbc42503          	lw	a0,-68(s0)
80000254:	6a8000ef          	jal	800008fc <strcat>
80000258:	2000006f          	j	80000458 <format_to_str+0x288>
8000025c:	fb842783          	lw	a5,-72(s0)
80000260:	0007c703          	lbu	a4,0(a5)
80000264:	06400793          	li	a5,100
80000268:	02f71e63          	bne	a4,a5,800002a4 <format_to_str+0xd4>
8000026c:	fb442783          	lw	a5,-76(s0)
80000270:	00478713          	addi	a4,a5,4
80000274:	fae42a23          	sw	a4,-76(s0)
80000278:	0007a483          	lw	s1,0(a5)
8000027c:	fbc42503          	lw	a0,-68(s0)
80000280:	0a5000ef          	jal	80000b24 <strlen>
80000284:	00050713          	mv	a4,a0
80000288:	fbc42783          	lw	a5,-68(s0)
8000028c:	00e787b3          	add	a5,a5,a4
80000290:	00a00613          	li	a2,10
80000294:	00078593          	mv	a1,a5
80000298:	00048513          	mv	a0,s1
8000029c:	498000ef          	jal	80000734 <itoa>
800002a0:	1b80006f          	j	80000458 <format_to_str+0x288>
800002a4:	fb842783          	lw	a5,-72(s0)
800002a8:	0007c703          	lbu	a4,0(a5)
800002ac:	06300793          	li	a5,99
800002b0:	02f71a63          	bne	a4,a5,800002e4 <format_to_str+0x114>
800002b4:	fb442783          	lw	a5,-76(s0)
800002b8:	00478713          	addi	a4,a5,4
800002bc:	fae42a23          	sw	a4,-76(s0)
800002c0:	0007a783          	lw	a5,0(a5)
800002c4:	0ff7f793          	zext.b	a5,a5
800002c8:	fef401a3          	sb	a5,-29(s0)
800002cc:	fe340793          	addi	a5,s0,-29
800002d0:	00100613          	li	a2,1
800002d4:	00078593          	mv	a1,a5
800002d8:	fbc42503          	lw	a0,-68(s0)
800002dc:	6c0000ef          	jal	8000099c <strncat>
800002e0:	1780006f          	j	80000458 <format_to_str+0x288>
800002e4:	fb842783          	lw	a5,-72(s0)
800002e8:	0007c703          	lbu	a4,0(a5)
800002ec:	07800793          	li	a5,120
800002f0:	02f71e63          	bne	a4,a5,8000032c <format_to_str+0x15c>
800002f4:	fb442783          	lw	a5,-76(s0)
800002f8:	00478713          	addi	a4,a5,4
800002fc:	fae42a23          	sw	a4,-76(s0)
80000300:	0007a483          	lw	s1,0(a5)
80000304:	fbc42503          	lw	a0,-68(s0)
80000308:	01d000ef          	jal	80000b24 <strlen>
8000030c:	00050713          	mv	a4,a0
80000310:	fbc42783          	lw	a5,-68(s0)
80000314:	00e787b3          	add	a5,a5,a4
80000318:	01000613          	li	a2,16
8000031c:	00078593          	mv	a1,a5
80000320:	00048513          	mv	a0,s1
80000324:	410000ef          	jal	80000734 <itoa>
80000328:	1300006f          	j	80000458 <format_to_str+0x288>
8000032c:	fb842783          	lw	a5,-72(s0)
80000330:	0007c703          	lbu	a4,0(a5)
80000334:	07500793          	li	a5,117
80000338:	02f71e63          	bne	a4,a5,80000374 <format_to_str+0x1a4>
8000033c:	fb442783          	lw	a5,-76(s0)
80000340:	00478713          	addi	a4,a5,4
80000344:	fae42a23          	sw	a4,-76(s0)
80000348:	0007a483          	lw	s1,0(a5)
8000034c:	fbc42503          	lw	a0,-68(s0)
80000350:	7d4000ef          	jal	80000b24 <strlen>
80000354:	00050713          	mv	a4,a0
80000358:	fbc42783          	lw	a5,-68(s0)
8000035c:	00e787b3          	add	a5,a5,a4
80000360:	00a00613          	li	a2,10
80000364:	00078593          	mv	a1,a5
80000368:	00048513          	mv	a0,s1
8000036c:	58c000ef          	jal	800008f8 <utoa>
80000370:	0e80006f          	j	80000458 <format_to_str+0x288>
80000374:	fb842783          	lw	a5,-72(s0)
80000378:	0007c703          	lbu	a4,0(a5)
8000037c:	07000793          	li	a5,112
80000380:	04f71063          	bne	a4,a5,800003c0 <format_to_str+0x1f0>
80000384:	fb442783          	lw	a5,-76(s0)
80000388:	00478713          	addi	a4,a5,4
8000038c:	fae42a23          	sw	a4,-76(s0)
80000390:	0007a783          	lw	a5,0(a5)
80000394:	00078493          	mv	s1,a5
80000398:	fbc42503          	lw	a0,-68(s0)
8000039c:	788000ef          	jal	80000b24 <strlen>
800003a0:	00050713          	mv	a4,a0
800003a4:	fbc42783          	lw	a5,-68(s0)
800003a8:	00e787b3          	add	a5,a5,a4
800003ac:	01000613          	li	a2,16
800003b0:	00078593          	mv	a1,a5
800003b4:	00048513          	mv	a0,s1
800003b8:	540000ef          	jal	800008f8 <utoa>
800003bc:	09c0006f          	j	80000458 <format_to_str+0x288>
800003c0:	fb842783          	lw	a5,-72(s0)
800003c4:	0007c703          	lbu	a4,0(a5)
800003c8:	06c00793          	li	a5,108
800003cc:	08f71663          	bne	a4,a5,80000458 <format_to_str+0x288>
800003d0:	fb842783          	lw	a5,-72(s0)
800003d4:	00178793          	addi	a5,a5,1
800003d8:	faf42c23          	sw	a5,-72(s0)
800003dc:	fb842783          	lw	a5,-72(s0)
800003e0:	0007c703          	lbu	a4,0(a5)
800003e4:	07500793          	li	a5,117
800003e8:	06f71863          	bne	a4,a5,80000458 <format_to_str+0x288>
800003ec:	fb442783          	lw	a5,-76(s0)
800003f0:	00778793          	addi	a5,a5,7
800003f4:	ff87f793          	andi	a5,a5,-8
800003f8:	00878713          	addi	a4,a5,8
800003fc:	fae42a23          	sw	a4,-76(s0)
80000400:	0007a703          	lw	a4,0(a5)
80000404:	0047a783          	lw	a5,4(a5)
80000408:	fee42423          	sw	a4,-24(s0)
8000040c:	fef42623          	sw	a5,-20(s0)
80000410:	fc042623          	sw	zero,-52(s0)
80000414:	fc042823          	sw	zero,-48(s0)
80000418:	fc042a23          	sw	zero,-44(s0)
8000041c:	fc042c23          	sw	zero,-40(s0)
80000420:	fc042e23          	sw	zero,-36(s0)
80000424:	fe040023          	sb	zero,-32(s0)
80000428:	fcc40793          	addi	a5,s0,-52
8000042c:	00078613          	mv	a2,a5
80000430:	fe842503          	lw	a0,-24(s0)
80000434:	fec42583          	lw	a1,-20(s0)
80000438:	c41ff0ef          	jal	80000078 <ulltoa>
8000043c:	fea42223          	sw	a0,-28(s0)
80000440:	fe442703          	lw	a4,-28(s0)
80000444:	fcc40793          	addi	a5,s0,-52
80000448:	00070613          	mv	a2,a4
8000044c:	00078593          	mv	a1,a5
80000450:	fbc42503          	lw	a0,-68(s0)
80000454:	548000ef          	jal	8000099c <strncat>
80000458:	fb842783          	lw	a5,-72(s0)
8000045c:	00178793          	addi	a5,a5,1
80000460:	faf42c23          	sw	a5,-72(s0)
80000464:	fb842783          	lw	a5,-72(s0)
80000468:	0007c783          	lbu	a5,0(a5)
8000046c:	d80798e3          	bnez	a5,800001fc <format_to_str+0x2c>
80000470:	00000013          	nop
80000474:	00000013          	nop
80000478:	04c12083          	lw	ra,76(sp)
8000047c:	04812403          	lw	s0,72(sp)
80000480:	04412483          	lw	s1,68(sp)
80000484:	05010113          	addi	sp,sp,80
80000488:	00008067          	ret

8000048c <printf>:
printf():
8000048c:	db010113          	addi	sp,sp,-592
80000490:	22112623          	sw	ra,556(sp)
80000494:	22812423          	sw	s0,552(sp)
80000498:	23010413          	addi	s0,sp,560
8000049c:	dca42e23          	sw	a0,-548(s0)
800004a0:	00b42223          	sw	a1,4(s0)
800004a4:	00c42423          	sw	a2,8(s0)
800004a8:	00d42623          	sw	a3,12(s0)
800004ac:	00e42823          	sw	a4,16(s0)
800004b0:	00f42a23          	sw	a5,20(s0)
800004b4:	01042c23          	sw	a6,24(s0)
800004b8:	01142e23          	sw	a7,28(s0)
800004bc:	df040793          	addi	a5,s0,-528
800004c0:	20000713          	li	a4,512
800004c4:	00070613          	mv	a2,a4
800004c8:	00000593          	li	a1,0
800004cc:	00078513          	mv	a0,a5
800004d0:	578000ef          	jal	80000a48 <memset>
800004d4:	02040793          	addi	a5,s0,32
800004d8:	dcf42c23          	sw	a5,-552(s0)
800004dc:	dd842783          	lw	a5,-552(s0)
800004e0:	fe478793          	addi	a5,a5,-28
800004e4:	def42623          	sw	a5,-532(s0)
800004e8:	dec42703          	lw	a4,-532(s0)
800004ec:	df040793          	addi	a5,s0,-528
800004f0:	00070613          	mv	a2,a4
800004f4:	ddc42583          	lw	a1,-548(s0)
800004f8:	00078513          	mv	a0,a5
800004fc:	cd5ff0ef          	jal	800001d0 <format_to_str>
80000500:	df040793          	addi	a5,s0,-528
80000504:	00078513          	mv	a0,a5
80000508:	61c000ef          	jal	80000b24 <strlen>
8000050c:	00050793          	mv	a5,a0
80000510:	00078713          	mv	a4,a5
80000514:	df040793          	addi	a5,s0,-528
80000518:	00070593          	mv	a1,a4
8000051c:	00078513          	mv	a0,a5
80000520:	af1ff0ef          	jal	80000010 <terminal_write>
80000524:	00000793          	li	a5,0
80000528:	00078513          	mv	a0,a5
8000052c:	22c12083          	lw	ra,556(sp)
80000530:	22812403          	lw	s0,552(sp)
80000534:	25010113          	addi	sp,sp,592
80000538:	00008067          	ret

8000053c <main>:
main():
8000053c:	fd010113          	addi	sp,sp,-48
80000540:	02112623          	sw	ra,44(sp)
80000544:	02812423          	sw	s0,40(sp)
80000548:	03010413          	addi	s0,sp,48
8000054c:	800027b7          	lui	a5,0x80002
80000550:	a3078793          	addi	a5,a5,-1488 # 80001a30 <__modsi3+0x30>
80000554:	fef42623          	sw	a5,-20(s0)
80000558:	00f00593          	li	a1,15
8000055c:	fec42503          	lw	a0,-20(s0)
80000560:	ab1ff0ef          	jal	80000010 <terminal_write>
80000564:	4d200593          	li	a1,1234
80000568:	800027b7          	lui	a5,0x80002
8000056c:	a4078513          	addi	a0,a5,-1472 # 80001a40 <__modsi3+0x40>
80000570:	f1dff0ef          	jal	8000048c <printf>
80000574:	800027b7          	lui	a5,0x80002
80000578:	a5078593          	addi	a1,a5,-1456 # 80001a50 <__modsi3+0x50>
8000057c:	800027b7          	lui	a5,0x80002
80000580:	a5878513          	addi	a0,a5,-1448 # 80001a58 <__modsi3+0x58>
80000584:	f09ff0ef          	jal	8000048c <printf>
80000588:	7d000613          	li	a2,2000
8000058c:	800027b7          	lui	a5,0x80002
80000590:	a6878593          	addi	a1,a5,-1432 # 80001a68 <__modsi3+0x68>
80000594:	800027b7          	lui	a5,0x80002
80000598:	a7078513          	addi	a0,a5,-1424 # 80001a70 <__modsi3+0x70>
8000059c:	ef1ff0ef          	jal	8000048c <printf>
800005a0:	02400593          	li	a1,36
800005a4:	800027b7          	lui	a5,0x80002
800005a8:	a8478513          	addi	a0,a5,-1404 # 80001a84 <__modsi3+0x84>
800005ac:	ee1ff0ef          	jal	8000048c <printf>
800005b0:	03000593          	li	a1,48
800005b4:	800027b7          	lui	a5,0x80002
800005b8:	a9878513          	addi	a0,a5,-1384 # 80001a98 <__modsi3+0x98>
800005bc:	ed1ff0ef          	jal	8000048c <printf>
800005c0:	4d200593          	li	a1,1234
800005c4:	800027b7          	lui	a5,0x80002
800005c8:	aac78513          	addi	a0,a5,-1364 # 80001aac <__modsi3+0xac>
800005cc:	ec1ff0ef          	jal	8000048c <printf>
800005d0:	800007b7          	lui	a5,0x80000
800005d4:	fff78593          	addi	a1,a5,-1 # 7fffffff <_start-0x1>
800005d8:	800027b7          	lui	a5,0x80002
800005dc:	ad078513          	addi	a0,a5,-1328 # 80001ad0 <__modsi3+0xd0>
800005e0:	eadff0ef          	jal	8000048c <printf>
800005e4:	fff00593          	li	a1,-1
800005e8:	800027b7          	lui	a5,0x80002
800005ec:	afc78513          	addi	a0,a5,-1284 # 80001afc <__modsi3+0xfc>
800005f0:	e9dff0ef          	jal	8000048c <printf>
800005f4:	fff00593          	li	a1,-1
800005f8:	800027b7          	lui	a5,0x80002
800005fc:	b2078513          	addi	a0,a5,-1248 # 80001b20 <__modsi3+0x120>
80000600:	e8dff0ef          	jal	8000048c <printf>
80000604:	fec42583          	lw	a1,-20(s0)
80000608:	800027b7          	lui	a5,0x80002
8000060c:	b4478513          	addi	a0,a5,-1212 # 80001b44 <__modsi3+0x144>
80000610:	e7dff0ef          	jal	8000048c <printf>
80000614:	02a00793          	li	a5,42
80000618:	fef42423          	sw	a5,-24(s0)
8000061c:	fe840713          	addi	a4,s0,-24
80000620:	fe840793          	addi	a5,s0,-24
80000624:	00070613          	mv	a2,a4
80000628:	00078593          	mv	a1,a5
8000062c:	800027b7          	lui	a5,0x80002
80000630:	b8078513          	addi	a0,a5,-1152 # 80001b80 <__modsi3+0x180>
80000634:	e59ff0ef          	jal	8000048c <printf>
80000638:	00100793          	li	a5,1
8000063c:	fcf42e23          	sw	a5,-36(s0)
80000640:	00200793          	li	a5,2
80000644:	fef42023          	sw	a5,-32(s0)
80000648:	00300793          	li	a5,3
8000064c:	fef42223          	sw	a5,-28(s0)
80000650:	fdc40793          	addi	a5,s0,-36
80000654:	00078593          	mv	a1,a5
80000658:	800027b7          	lui	a5,0x80002
8000065c:	bac78513          	addi	a0,a5,-1108 # 80001bac <__modsi3+0x1ac>
80000660:	e2dff0ef          	jal	8000048c <printf>
80000664:	fdc40793          	addi	a5,s0,-36
80000668:	00478793          	addi	a5,a5,4
8000066c:	00078593          	mv	a1,a5
80000670:	800027b7          	lui	a5,0x80002
80000674:	bc478513          	addi	a0,a5,-1084 # 80001bc4 <__modsi3+0x1c4>
80000678:	e15ff0ef          	jal	8000048c <printf>
8000067c:	fdc40793          	addi	a5,s0,-36
80000680:	00878793          	addi	a5,a5,8
80000684:	00078593          	mv	a1,a5
80000688:	800027b7          	lui	a5,0x80002
8000068c:	bdc78513          	addi	a0,a5,-1060 # 80001bdc <__modsi3+0x1dc>
80000690:	dfdff0ef          	jal	8000048c <printf>
80000694:	00000613          	li	a2,0
80000698:	00000693          	li	a3,0
8000069c:	800027b7          	lui	a5,0x80002
800006a0:	bf478513          	addi	a0,a5,-1036 # 80001bf4 <__modsi3+0x1f4>
800006a4:	de9ff0ef          	jal	8000048c <printf>
800006a8:	00100637          	lui	a2,0x100
800006ac:	fff60613          	addi	a2,a2,-1 # fffff <_start-0x7ff00001>
800006b0:	00000693          	li	a3,0
800006b4:	800027b7          	lui	a5,0x80002
800006b8:	c1c78513          	addi	a0,a5,-996 # 80001c1c <__modsi3+0x21c>
800006bc:	dd1ff0ef          	jal	8000048c <printf>
800006c0:	fff00613          	li	a2,-1
800006c4:	00f00693          	li	a3,15
800006c8:	800027b7          	lui	a5,0x80002
800006cc:	c4478513          	addi	a0,a5,-956 # 80001c44 <__modsi3+0x244>
800006d0:	dbdff0ef          	jal	8000048c <printf>
800006d4:	800027b7          	lui	a5,0x80002
800006d8:	d207a703          	lw	a4,-736(a5) # 80001d20 <__modsi3+0x320>
800006dc:	d247a783          	lw	a5,-732(a5)
800006e0:	00070613          	mv	a2,a4
800006e4:	00078693          	mv	a3,a5
800006e8:	800027b7          	lui	a5,0x80002
800006ec:	c7078513          	addi	a0,a5,-912 # 80001c70 <__modsi3+0x270>
800006f0:	d9dff0ef          	jal	8000048c <printf>
800006f4:	ffe00613          	li	a2,-2
800006f8:	fff00693          	li	a3,-1
800006fc:	800027b7          	lui	a5,0x80002
80000700:	ca478513          	addi	a0,a5,-860 # 80001ca4 <__modsi3+0x2a4>
80000704:	d89ff0ef          	jal	8000048c <printf>
80000708:	fff00613          	li	a2,-1
8000070c:	fff00693          	li	a3,-1
80000710:	800027b7          	lui	a5,0x80002
80000714:	cdc78513          	addi	a0,a5,-804 # 80001cdc <__modsi3+0x2dc>
80000718:	d75ff0ef          	jal	8000048c <printf>
8000071c:	00000793          	li	a5,0
80000720:	00078513          	mv	a0,a5
80000724:	02c12083          	lw	ra,44(sp)
80000728:	02812403          	lw	s0,40(sp)
8000072c:	03010113          	addi	sp,sp,48
80000730:	00008067          	ret

80000734 <itoa>:
itoa():
80000734:	ff010113          	addi	sp,sp,-16
80000738:	00812423          	sw	s0,8(sp)
8000073c:	00112623          	sw	ra,12(sp)
80000740:	ffe60713          	addi	a4,a2,-2
80000744:	02200793          	li	a5,34
80000748:	00058413          	mv	s0,a1
8000074c:	04e7e063          	bltu	a5,a4,8000078c <itoa+0x58>
80000750:	00a00793          	li	a5,10
80000754:	02f60063          	beq	a2,a5,80000774 <itoa+0x40>
80000758:	00040593          	mv	a1,s0
8000075c:	048000ef          	jal	800007a4 <__utoa>
80000760:	00c12083          	lw	ra,12(sp)
80000764:	00040513          	mv	a0,s0
80000768:	00812403          	lw	s0,8(sp)
8000076c:	01010113          	addi	sp,sp,16
80000770:	00008067          	ret
80000774:	fe0552e3          	bgez	a0,80000758 <itoa+0x24>
80000778:	02d00793          	li	a5,45
8000077c:	00f58023          	sb	a5,0(a1)
80000780:	40a00533          	neg	a0,a0
80000784:	00158593          	addi	a1,a1,1
80000788:	fd5ff06f          	j	8000075c <itoa+0x28>
8000078c:	00058023          	sb	zero,0(a1)
80000790:	00c12083          	lw	ra,12(sp)
80000794:	00812403          	lw	s0,8(sp)
80000798:	00000513          	li	a0,0
8000079c:	01010113          	addi	sp,sp,16
800007a0:	00008067          	ret

800007a4 <__utoa>:
__utoa():
800007a4:	00001797          	auipc	a5,0x1
800007a8:	58478793          	addi	a5,a5,1412 # 80001d28 <__modsi3+0x328>
800007ac:	0007a283          	lw	t0,0(a5)
800007b0:	0047af83          	lw	t6,4(a5)
800007b4:	0087af03          	lw	t5,8(a5)
800007b8:	00c7ae83          	lw	t4,12(a5)
800007bc:	0107ae03          	lw	t3,16(a5)
800007c0:	0147a303          	lw	t1,20(a5)
800007c4:	0187a883          	lw	a7,24(a5)
800007c8:	01c7a803          	lw	a6,28(a5)
800007cc:	0207a683          	lw	a3,32(a5)
800007d0:	00001797          	auipc	a5,0x1
800007d4:	57c7c783          	lbu	a5,1404(a5) # 80001d4c <__modsi3+0x34c>
800007d8:	fb010113          	addi	sp,sp,-80
800007dc:	03512a23          	sw	s5,52(sp)
800007e0:	02f10623          	sb	a5,44(sp)
800007e4:	04112623          	sw	ra,76(sp)
800007e8:	ffe60713          	addi	a4,a2,-2
800007ec:	00512423          	sw	t0,8(sp)
800007f0:	01f12623          	sw	t6,12(sp)
800007f4:	01e12823          	sw	t5,16(sp)
800007f8:	01d12a23          	sw	t4,20(sp)
800007fc:	01c12c23          	sw	t3,24(sp)
80000800:	00612e23          	sw	t1,28(sp)
80000804:	03112023          	sw	a7,32(sp)
80000808:	03012223          	sw	a6,36(sp)
8000080c:	02d12423          	sw	a3,40(sp)
80000810:	02200793          	li	a5,34
80000814:	00058a93          	mv	s5,a1
80000818:	0ce7e463          	bltu	a5,a4,800008e0 <__utoa+0x13c>
8000081c:	04812423          	sw	s0,72(sp)
80000820:	04912223          	sw	s1,68(sp)
80000824:	05212023          	sw	s2,64(sp)
80000828:	03312e23          	sw	s3,60(sp)
8000082c:	03412c23          	sw	s4,56(sp)
80000830:	03612823          	sw	s6,48(sp)
80000834:	00060493          	mv	s1,a2
80000838:	00050413          	mv	s0,a0
8000083c:	00000913          	li	s2,0
80000840:	00048593          	mv	a1,s1
80000844:	00040513          	mv	a0,s0
80000848:	184010ef          	jal	800019cc <__umodsi3>
8000084c:	00250533          	add	a0,a0,sp
80000850:	00854783          	lbu	a5,8(a0)
80000854:	00090993          	mv	s3,s2
80000858:	00190913          	addi	s2,s2,1
8000085c:	012a8a33          	add	s4,s5,s2
80000860:	00040513          	mv	a0,s0
80000864:	00048593          	mv	a1,s1
80000868:	fefa0fa3          	sb	a5,-1(s4)
8000086c:	00040b13          	mv	s6,s0
80000870:	114010ef          	jal	80001984 <__hidden___udivsi3>
80000874:	00050413          	mv	s0,a0
80000878:	fc9b74e3          	bgeu	s6,s1,80000840 <__utoa+0x9c>
8000087c:	000a0023          	sb	zero,0(s4)
80000880:	02098a63          	beqz	s3,800008b4 <__utoa+0x110>
80000884:	000a8693          	mv	a3,s5
80000888:	013a8733          	add	a4,s5,s3
8000088c:	00000793          	li	a5,0
80000890:	00074583          	lbu	a1,0(a4)
80000894:	0006c603          	lbu	a2,0(a3)
80000898:	00178793          	addi	a5,a5,1
8000089c:	00b68023          	sb	a1,0(a3)
800008a0:	00c70023          	sb	a2,0(a4)
800008a4:	40f98633          	sub	a2,s3,a5
800008a8:	00168693          	addi	a3,a3,1
800008ac:	fff70713          	addi	a4,a4,-1
800008b0:	fec7c0e3          	blt	a5,a2,80000890 <__utoa+0xec>
800008b4:	04812403          	lw	s0,72(sp)
800008b8:	04c12083          	lw	ra,76(sp)
800008bc:	04412483          	lw	s1,68(sp)
800008c0:	04012903          	lw	s2,64(sp)
800008c4:	03c12983          	lw	s3,60(sp)
800008c8:	03812a03          	lw	s4,56(sp)
800008cc:	03012b03          	lw	s6,48(sp)
800008d0:	000a8513          	mv	a0,s5
800008d4:	03412a83          	lw	s5,52(sp)
800008d8:	05010113          	addi	sp,sp,80
800008dc:	00008067          	ret
800008e0:	00058023          	sb	zero,0(a1)
800008e4:	04c12083          	lw	ra,76(sp)
800008e8:	03412a83          	lw	s5,52(sp)
800008ec:	00000513          	li	a0,0
800008f0:	05010113          	addi	sp,sp,80
800008f4:	00008067          	ret

800008f8 <utoa>:
utoa():
800008f8:	eadff06f          	j	800007a4 <__utoa>

800008fc <strcat>:
strcat():
800008fc:	ff010113          	addi	sp,sp,-16
80000900:	00812423          	sw	s0,8(sp)
80000904:	00112623          	sw	ra,12(sp)
80000908:	00357793          	andi	a5,a0,3
8000090c:	00050413          	mv	s0,a0
80000910:	06079663          	bnez	a5,8000097c <strcat+0x80>
80000914:	00052703          	lw	a4,0(a0)
80000918:	feff0637          	lui	a2,0xfeff0
8000091c:	eff60613          	addi	a2,a2,-257 # fefefeff <__clz_tab+0x7efee1af>
80000920:	00c707b3          	add	a5,a4,a2
80000924:	808086b7          	lui	a3,0x80808
80000928:	fff74713          	not	a4,a4
8000092c:	00e7f7b3          	and	a5,a5,a4
80000930:	08068693          	addi	a3,a3,128 # 80808080 <__clz_tab+0x806330>
80000934:	00d7f7b3          	and	a5,a5,a3
80000938:	04079263          	bnez	a5,8000097c <strcat+0x80>
8000093c:	00452703          	lw	a4,4(a0)
80000940:	00450513          	addi	a0,a0,4
80000944:	00c707b3          	add	a5,a4,a2
80000948:	fff74713          	not	a4,a4
8000094c:	00e7f7b3          	and	a5,a5,a4
80000950:	00d7f7b3          	and	a5,a5,a3
80000954:	02079463          	bnez	a5,8000097c <strcat+0x80>
80000958:	00452703          	lw	a4,4(a0)
8000095c:	00450513          	addi	a0,a0,4
80000960:	00c707b3          	add	a5,a4,a2
80000964:	fff74713          	not	a4,a4
80000968:	00e7f7b3          	and	a5,a5,a4
8000096c:	00d7f7b3          	and	a5,a5,a3
80000970:	fc0786e3          	beqz	a5,8000093c <strcat+0x40>
80000974:	0080006f          	j	8000097c <strcat+0x80>
80000978:	00150513          	addi	a0,a0,1
8000097c:	00054783          	lbu	a5,0(a0)
80000980:	fe079ce3          	bnez	a5,80000978 <strcat+0x7c>
80000984:	22c000ef          	jal	80000bb0 <strcpy>
80000988:	00c12083          	lw	ra,12(sp)
8000098c:	00040513          	mv	a0,s0
80000990:	00812403          	lw	s0,8(sp)
80000994:	01010113          	addi	sp,sp,16
80000998:	00008067          	ret

8000099c <strncat>:
strncat():
8000099c:	00357713          	andi	a4,a0,3
800009a0:	00050793          	mv	a5,a0
800009a4:	06071663          	bnez	a4,80000a10 <strncat+0x74>
800009a8:	00052683          	lw	a3,0(a0)
800009ac:	feff08b7          	lui	a7,0xfeff0
800009b0:	eff88893          	addi	a7,a7,-257 # fefefeff <__clz_tab+0x7efee1af>
800009b4:	01168733          	add	a4,a3,a7
800009b8:	80808837          	lui	a6,0x80808
800009bc:	fff6c693          	not	a3,a3
800009c0:	00d77733          	and	a4,a4,a3
800009c4:	08080813          	addi	a6,a6,128 # 80808080 <__clz_tab+0x806330>
800009c8:	01077733          	and	a4,a4,a6
800009cc:	04071263          	bnez	a4,80000a10 <strncat+0x74>
800009d0:	0047a683          	lw	a3,4(a5)
800009d4:	00478793          	addi	a5,a5,4
800009d8:	01168733          	add	a4,a3,a7
800009dc:	fff6c693          	not	a3,a3
800009e0:	00d77733          	and	a4,a4,a3
800009e4:	01077733          	and	a4,a4,a6
800009e8:	02071463          	bnez	a4,80000a10 <strncat+0x74>
800009ec:	0047a683          	lw	a3,4(a5)
800009f0:	00478793          	addi	a5,a5,4
800009f4:	01168733          	add	a4,a3,a7
800009f8:	fff6c693          	not	a3,a3
800009fc:	00d77733          	and	a4,a4,a3
80000a00:	01077733          	and	a4,a4,a6
80000a04:	fc0706e3          	beqz	a4,800009d0 <strncat+0x34>
80000a08:	0080006f          	j	80000a10 <strncat+0x74>
80000a0c:	00178793          	addi	a5,a5,1
80000a10:	0007c703          	lbu	a4,0(a5)
80000a14:	fe071ce3          	bnez	a4,80000a0c <strncat+0x70>
80000a18:	00c786b3          	add	a3,a5,a2
80000a1c:	02060463          	beqz	a2,80000a44 <strncat+0xa8>
80000a20:	0005c703          	lbu	a4,0(a1)
80000a24:	00178793          	addi	a5,a5,1
80000a28:	00158593          	addi	a1,a1,1
80000a2c:	fee78fa3          	sb	a4,-1(a5)
80000a30:	00070863          	beqz	a4,80000a40 <strncat+0xa4>
80000a34:	fef696e3          	bne	a3,a5,80000a20 <strncat+0x84>
80000a38:	00068023          	sb	zero,0(a3)
80000a3c:	00008067          	ret
80000a40:	00008067          	ret
80000a44:	00008067          	ret

80000a48 <memset>:
memset():
80000a48:	00f00313          	li	t1,15
80000a4c:	00050713          	mv	a4,a0
80000a50:	02c37e63          	bgeu	t1,a2,80000a8c <memset+0x44>
80000a54:	00f77793          	andi	a5,a4,15
80000a58:	0a079063          	bnez	a5,80000af8 <memset+0xb0>
80000a5c:	08059263          	bnez	a1,80000ae0 <memset+0x98>
80000a60:	ff067693          	andi	a3,a2,-16
80000a64:	00f67613          	andi	a2,a2,15
80000a68:	00e686b3          	add	a3,a3,a4
80000a6c:	00b72023          	sw	a1,0(a4)
80000a70:	00b72223          	sw	a1,4(a4)
80000a74:	00b72423          	sw	a1,8(a4)
80000a78:	00b72623          	sw	a1,12(a4)
80000a7c:	01070713          	addi	a4,a4,16
80000a80:	fed766e3          	bltu	a4,a3,80000a6c <memset+0x24>
80000a84:	00061463          	bnez	a2,80000a8c <memset+0x44>
80000a88:	00008067          	ret
80000a8c:	40c306b3          	sub	a3,t1,a2
80000a90:	00269693          	slli	a3,a3,0x2
80000a94:	00000297          	auipc	t0,0x0
80000a98:	005686b3          	add	a3,a3,t0
80000a9c:	00c68067          	jr	12(a3)
80000aa0:	00b70723          	sb	a1,14(a4)
80000aa4:	00b706a3          	sb	a1,13(a4)
80000aa8:	00b70623          	sb	a1,12(a4)
80000aac:	00b705a3          	sb	a1,11(a4)
80000ab0:	00b70523          	sb	a1,10(a4)
80000ab4:	00b704a3          	sb	a1,9(a4)
80000ab8:	00b70423          	sb	a1,8(a4)
80000abc:	00b703a3          	sb	a1,7(a4)
80000ac0:	00b70323          	sb	a1,6(a4)
80000ac4:	00b702a3          	sb	a1,5(a4)
80000ac8:	00b70223          	sb	a1,4(a4)
80000acc:	00b701a3          	sb	a1,3(a4)
80000ad0:	00b70123          	sb	a1,2(a4)
80000ad4:	00b700a3          	sb	a1,1(a4)
80000ad8:	00b70023          	sb	a1,0(a4)
80000adc:	00008067          	ret
80000ae0:	0ff5f593          	zext.b	a1,a1
80000ae4:	00859693          	slli	a3,a1,0x8
80000ae8:	00d5e5b3          	or	a1,a1,a3
80000aec:	01059693          	slli	a3,a1,0x10
80000af0:	00d5e5b3          	or	a1,a1,a3
80000af4:	f6dff06f          	j	80000a60 <memset+0x18>
80000af8:	00279693          	slli	a3,a5,0x2
80000afc:	00000297          	auipc	t0,0x0
80000b00:	005686b3          	add	a3,a3,t0
80000b04:	00008293          	mv	t0,ra
80000b08:	fa0680e7          	jalr	-96(a3)
80000b0c:	00028093          	mv	ra,t0
80000b10:	ff078793          	addi	a5,a5,-16
80000b14:	40f70733          	sub	a4,a4,a5
80000b18:	00f60633          	add	a2,a2,a5
80000b1c:	f6c378e3          	bgeu	t1,a2,80000a8c <memset+0x44>
80000b20:	f3dff06f          	j	80000a5c <memset+0x14>

80000b24 <strlen>:
strlen():
80000b24:	00357793          	andi	a5,a0,3
80000b28:	00050713          	mv	a4,a0
80000b2c:	04079c63          	bnez	a5,80000b84 <strlen+0x60>
80000b30:	7f7f86b7          	lui	a3,0x7f7f8
80000b34:	f7f68693          	addi	a3,a3,-129 # 7f7f7f7f <_start-0x808081>
80000b38:	fff00593          	li	a1,-1
80000b3c:	00072603          	lw	a2,0(a4)
80000b40:	00470713          	addi	a4,a4,4
80000b44:	00d677b3          	and	a5,a2,a3
80000b48:	00d787b3          	add	a5,a5,a3
80000b4c:	00c7e7b3          	or	a5,a5,a2
80000b50:	00d7e7b3          	or	a5,a5,a3
80000b54:	feb784e3          	beq	a5,a1,80000b3c <strlen+0x18>
80000b58:	ffc74683          	lbu	a3,-4(a4)
80000b5c:	40a707b3          	sub	a5,a4,a0
80000b60:	04068463          	beqz	a3,80000ba8 <strlen+0x84>
80000b64:	ffd74683          	lbu	a3,-3(a4)
80000b68:	02068c63          	beqz	a3,80000ba0 <strlen+0x7c>
80000b6c:	ffe74503          	lbu	a0,-2(a4)
80000b70:	00a03533          	snez	a0,a0
80000b74:	00f50533          	add	a0,a0,a5
80000b78:	ffe50513          	addi	a0,a0,-2
80000b7c:	00008067          	ret
80000b80:	fa0688e3          	beqz	a3,80000b30 <strlen+0xc>
80000b84:	00074783          	lbu	a5,0(a4)
80000b88:	00170713          	addi	a4,a4,1
80000b8c:	00377693          	andi	a3,a4,3
80000b90:	fe0798e3          	bnez	a5,80000b80 <strlen+0x5c>
80000b94:	40a70733          	sub	a4,a4,a0
80000b98:	fff70513          	addi	a0,a4,-1
80000b9c:	00008067          	ret
80000ba0:	ffd78513          	addi	a0,a5,-3
80000ba4:	00008067          	ret
80000ba8:	ffc78513          	addi	a0,a5,-4
80000bac:	00008067          	ret

80000bb0 <strcpy>:
strcpy():
80000bb0:	00b567b3          	or	a5,a0,a1
80000bb4:	0037f793          	andi	a5,a5,3
80000bb8:	08079063          	bnez	a5,80000c38 <strcpy+0x88>
80000bbc:	0005a703          	lw	a4,0(a1)
80000bc0:	7f7f86b7          	lui	a3,0x7f7f8
80000bc4:	f7f68693          	addi	a3,a3,-129 # 7f7f7f7f <_start-0x808081>
80000bc8:	00d77833          	and	a6,a4,a3
80000bcc:	00d80833          	add	a6,a6,a3
80000bd0:	00e86833          	or	a6,a6,a4
80000bd4:	00d86833          	or	a6,a6,a3
80000bd8:	fff00793          	li	a5,-1
80000bdc:	00050613          	mv	a2,a0
80000be0:	02f81463          	bne	a6,a5,80000c08 <strcpy+0x58>
80000be4:	00458593          	addi	a1,a1,4
80000be8:	00e62023          	sw	a4,0(a2)
80000bec:	0005a703          	lw	a4,0(a1)
80000bf0:	00460613          	addi	a2,a2,4
80000bf4:	00d777b3          	and	a5,a4,a3
80000bf8:	00d787b3          	add	a5,a5,a3
80000bfc:	00e7e7b3          	or	a5,a5,a4
80000c00:	00d7e7b3          	or	a5,a5,a3
80000c04:	ff0780e3          	beq	a5,a6,80000be4 <strcpy+0x34>
80000c08:	0005c783          	lbu	a5,0(a1)
80000c0c:	0015c703          	lbu	a4,1(a1)
80000c10:	0025c683          	lbu	a3,2(a1)
80000c14:	00f60023          	sb	a5,0(a2)
80000c18:	00078a63          	beqz	a5,80000c2c <strcpy+0x7c>
80000c1c:	00e600a3          	sb	a4,1(a2)
80000c20:	00070663          	beqz	a4,80000c2c <strcpy+0x7c>
80000c24:	00d60123          	sb	a3,2(a2)
80000c28:	00069463          	bnez	a3,80000c30 <strcpy+0x80>
80000c2c:	00008067          	ret
80000c30:	000601a3          	sb	zero,3(a2)
80000c34:	00008067          	ret
80000c38:	00050793          	mv	a5,a0
80000c3c:	0005c703          	lbu	a4,0(a1)
80000c40:	00178793          	addi	a5,a5,1
80000c44:	00158593          	addi	a1,a1,1
80000c48:	fee78fa3          	sb	a4,-1(a5)
80000c4c:	fe0718e3          	bnez	a4,80000c3c <strcpy+0x8c>
80000c50:	00008067          	ret

80000c54 <__udivdi3>:
__udivdi3():
80000c54:	fd010113          	addi	sp,sp,-48
80000c58:	01312e23          	sw	s3,28(sp)
80000c5c:	02112623          	sw	ra,44(sp)
80000c60:	01612823          	sw	s6,16(sp)
80000c64:	00050993          	mv	s3,a0
80000c68:	00058793          	mv	a5,a1
80000c6c:	16069663          	bnez	a3,80000dd8 <__udivdi3+0x184>
80000c70:	02812423          	sw	s0,40(sp)
80000c74:	01512a23          	sw	s5,20(sp)
80000c78:	02912223          	sw	s1,36(sp)
80000c7c:	03212023          	sw	s2,32(sp)
80000c80:	01412c23          	sw	s4,24(sp)
80000c84:	00060a93          	mv	s5,a2
80000c88:	00050413          	mv	s0,a0
80000c8c:	1cc5f463          	bgeu	a1,a2,80000e54 <__udivdi3+0x200>
80000c90:	00010737          	lui	a4,0x10
80000c94:	00058493          	mv	s1,a1
80000c98:	2ce66263          	bltu	a2,a4,80000f5c <__udivdi3+0x308>
80000c9c:	01000737          	lui	a4,0x1000
80000ca0:	01800693          	li	a3,24
80000ca4:	00e67463          	bgeu	a2,a4,80000cac <__udivdi3+0x58>
80000ca8:	01000693          	li	a3,16
80000cac:	00d655b3          	srl	a1,a2,a3
80000cb0:	00001717          	auipc	a4,0x1
80000cb4:	0a070713          	addi	a4,a4,160 # 80001d50 <__clz_tab>
80000cb8:	00b70733          	add	a4,a4,a1
80000cbc:	00074703          	lbu	a4,0(a4)
80000cc0:	02000593          	li	a1,32
80000cc4:	00d70733          	add	a4,a4,a3
80000cc8:	40e586b3          	sub	a3,a1,a4
80000ccc:	00e58c63          	beq	a1,a4,80000ce4 <__udivdi3+0x90>
80000cd0:	00d794b3          	sll	s1,a5,a3
80000cd4:	00e9d733          	srl	a4,s3,a4
80000cd8:	009764b3          	or	s1,a4,s1
80000cdc:	00d61ab3          	sll	s5,a2,a3
80000ce0:	00d99433          	sll	s0,s3,a3
80000ce4:	010ada13          	srli	s4,s5,0x10
80000ce8:	000a0593          	mv	a1,s4
80000cec:	00048513          	mv	a0,s1
80000cf0:	495000ef          	jal	80001984 <__hidden___udivsi3>
80000cf4:	010a9b13          	slli	s6,s5,0x10
80000cf8:	00050913          	mv	s2,a0
80000cfc:	010b5b13          	srli	s6,s6,0x10
80000d00:	00090593          	mv	a1,s2
80000d04:	000b0513          	mv	a0,s6
80000d08:	451000ef          	jal	80001958 <__mulsi3>
80000d0c:	00050793          	mv	a5,a0
80000d10:	000a0593          	mv	a1,s4
80000d14:	00048513          	mv	a0,s1
80000d18:	00078493          	mv	s1,a5
80000d1c:	4b1000ef          	jal	800019cc <__umodsi3>
80000d20:	01051513          	slli	a0,a0,0x10
80000d24:	01045793          	srli	a5,s0,0x10
80000d28:	00a7e7b3          	or	a5,a5,a0
80000d2c:	0097fc63          	bgeu	a5,s1,80000d44 <__udivdi3+0xf0>
80000d30:	00fa87b3          	add	a5,s5,a5
80000d34:	fff90713          	addi	a4,s2,-1
80000d38:	0157e463          	bltu	a5,s5,80000d40 <__udivdi3+0xec>
80000d3c:	5a97ea63          	bltu	a5,s1,800012f0 <__udivdi3+0x69c>
80000d40:	00070913          	mv	s2,a4
80000d44:	409784b3          	sub	s1,a5,s1
80000d48:	00048513          	mv	a0,s1
80000d4c:	000a0593          	mv	a1,s4
80000d50:	435000ef          	jal	80001984 <__hidden___udivsi3>
80000d54:	00050993          	mv	s3,a0
80000d58:	00098593          	mv	a1,s3
80000d5c:	000b0513          	mv	a0,s6
80000d60:	3f9000ef          	jal	80001958 <__mulsi3>
80000d64:	00050793          	mv	a5,a0
80000d68:	000a0593          	mv	a1,s4
80000d6c:	00048513          	mv	a0,s1
80000d70:	01041413          	slli	s0,s0,0x10
80000d74:	00078493          	mv	s1,a5
80000d78:	455000ef          	jal	800019cc <__umodsi3>
80000d7c:	01045413          	srli	s0,s0,0x10
80000d80:	01051513          	slli	a0,a0,0x10
80000d84:	00a46433          	or	s0,s0,a0
80000d88:	00947c63          	bgeu	s0,s1,80000da0 <__udivdi3+0x14c>
80000d8c:	008a8433          	add	s0,s5,s0
80000d90:	fff98793          	addi	a5,s3,-1
80000d94:	4f546263          	bltu	s0,s5,80001278 <__udivdi3+0x624>
80000d98:	ffe98993          	addi	s3,s3,-2
80000d9c:	4c947e63          	bgeu	s0,s1,80001278 <__udivdi3+0x624>
80000da0:	01091613          	slli	a2,s2,0x10
80000da4:	01366533          	or	a0,a2,s3
80000da8:	00000b13          	li	s6,0
80000dac:	02812403          	lw	s0,40(sp)
80000db0:	02c12083          	lw	ra,44(sp)
80000db4:	02412483          	lw	s1,36(sp)
80000db8:	02012903          	lw	s2,32(sp)
80000dbc:	01812a03          	lw	s4,24(sp)
80000dc0:	01412a83          	lw	s5,20(sp)
80000dc4:	01c12983          	lw	s3,28(sp)
80000dc8:	000b0593          	mv	a1,s6
80000dcc:	01012b03          	lw	s6,16(sp)
80000dd0:	03010113          	addi	sp,sp,48
80000dd4:	00008067          	ret
80000dd8:	02d5f263          	bgeu	a1,a3,80000dfc <__udivdi3+0x1a8>
80000ddc:	00000b13          	li	s6,0
80000de0:	00000513          	li	a0,0
80000de4:	02c12083          	lw	ra,44(sp)
80000de8:	01c12983          	lw	s3,28(sp)
80000dec:	000b0593          	mv	a1,s6
80000df0:	01012b03          	lw	s6,16(sp)
80000df4:	03010113          	addi	sp,sp,48
80000df8:	00008067          	ret
80000dfc:	01712623          	sw	s7,12(sp)
80000e00:	00010737          	lui	a4,0x10
80000e04:	28e6e063          	bltu	a3,a4,80001084 <__udivdi3+0x430>
80000e08:	01000737          	lui	a4,0x1000
80000e0c:	01800593          	li	a1,24
80000e10:	00e6f463          	bgeu	a3,a4,80000e18 <__udivdi3+0x1c4>
80000e14:	01000593          	li	a1,16
80000e18:	00b6d533          	srl	a0,a3,a1
80000e1c:	00001717          	auipc	a4,0x1
80000e20:	f3470713          	addi	a4,a4,-204 # 80001d50 <__clz_tab>
80000e24:	00a70733          	add	a4,a4,a0
80000e28:	00074703          	lbu	a4,0(a4)
80000e2c:	02000513          	li	a0,32
80000e30:	00b70733          	add	a4,a4,a1
80000e34:	40e50bb3          	sub	s7,a0,a4
80000e38:	26e51e63          	bne	a0,a4,800010b4 <__udivdi3+0x460>
80000e3c:	46f6ec63          	bltu	a3,a5,800012b4 <__udivdi3+0x660>
80000e40:	00c9b533          	sltu	a0,s3,a2
80000e44:	00c12b83          	lw	s7,12(sp)
80000e48:	00153513          	seqz	a0,a0
80000e4c:	00000b13          	li	s6,0
80000e50:	f95ff06f          	j	80000de4 <__udivdi3+0x190>
80000e54:	10060c63          	beqz	a2,80000f6c <__udivdi3+0x318>
80000e58:	00010737          	lui	a4,0x10
80000e5c:	44e67263          	bgeu	a2,a4,800012a0 <__udivdi3+0x64c>
80000e60:	10063693          	sltiu	a3,a2,256
80000e64:	0016b693          	seqz	a3,a3
80000e68:	00369693          	slli	a3,a3,0x3
80000e6c:	00d655b3          	srl	a1,a2,a3
80000e70:	00001717          	auipc	a4,0x1
80000e74:	ee070713          	addi	a4,a4,-288 # 80001d50 <__clz_tab>
80000e78:	00b70733          	add	a4,a4,a1
80000e7c:	00074483          	lbu	s1,0(a4)
80000e80:	02000713          	li	a4,32
80000e84:	00d484b3          	add	s1,s1,a3
80000e88:	409706b3          	sub	a3,a4,s1
80000e8c:	10971463          	bne	a4,s1,80000f94 <__udivdi3+0x340>
80000e90:	01061a13          	slli	s4,a2,0x10
80000e94:	40c784b3          	sub	s1,a5,a2
80000e98:	01065913          	srli	s2,a2,0x10
80000e9c:	010a5a13          	srli	s4,s4,0x10
80000ea0:	00100b13          	li	s6,1
80000ea4:	00090593          	mv	a1,s2
80000ea8:	00048513          	mv	a0,s1
80000eac:	2d9000ef          	jal	80001984 <__hidden___udivsi3>
80000eb0:	000a0593          	mv	a1,s4
80000eb4:	00050993          	mv	s3,a0
80000eb8:	2a1000ef          	jal	80001958 <__mulsi3>
80000ebc:	00050793          	mv	a5,a0
80000ec0:	00090593          	mv	a1,s2
80000ec4:	00048513          	mv	a0,s1
80000ec8:	00078493          	mv	s1,a5
80000ecc:	301000ef          	jal	800019cc <__umodsi3>
80000ed0:	01051513          	slli	a0,a0,0x10
80000ed4:	01045793          	srli	a5,s0,0x10
80000ed8:	00a7e7b3          	or	a5,a5,a0
80000edc:	0097fc63          	bgeu	a5,s1,80000ef4 <__udivdi3+0x2a0>
80000ee0:	00fa87b3          	add	a5,s5,a5
80000ee4:	fff98713          	addi	a4,s3,-1
80000ee8:	0157e463          	bltu	a5,s5,80000ef0 <__udivdi3+0x29c>
80000eec:	3e97ec63          	bltu	a5,s1,800012e4 <__udivdi3+0x690>
80000ef0:	00070993          	mv	s3,a4
80000ef4:	409784b3          	sub	s1,a5,s1
80000ef8:	00048513          	mv	a0,s1
80000efc:	00090593          	mv	a1,s2
80000f00:	285000ef          	jal	80001984 <__hidden___udivsi3>
80000f04:	000a0593          	mv	a1,s4
80000f08:	00050a13          	mv	s4,a0
80000f0c:	24d000ef          	jal	80001958 <__mulsi3>
80000f10:	00050793          	mv	a5,a0
80000f14:	00090593          	mv	a1,s2
80000f18:	00048513          	mv	a0,s1
80000f1c:	01041413          	slli	s0,s0,0x10
80000f20:	00078493          	mv	s1,a5
80000f24:	2a9000ef          	jal	800019cc <__umodsi3>
80000f28:	01045413          	srli	s0,s0,0x10
80000f2c:	01051513          	slli	a0,a0,0x10
80000f30:	00a46433          	or	s0,s0,a0
80000f34:	00947e63          	bgeu	s0,s1,80000f50 <__udivdi3+0x2fc>
80000f38:	008a8433          	add	s0,s5,s0
80000f3c:	fffa0793          	addi	a5,s4,-1
80000f40:	01546663          	bltu	s0,s5,80000f4c <__udivdi3+0x2f8>
80000f44:	ffea0a13          	addi	s4,s4,-2
80000f48:	00946463          	bltu	s0,s1,80000f50 <__udivdi3+0x2fc>
80000f4c:	00078a13          	mv	s4,a5
80000f50:	01099613          	slli	a2,s3,0x10
80000f54:	01466533          	or	a0,a2,s4
80000f58:	e55ff06f          	j	80000dac <__udivdi3+0x158>
80000f5c:	10063693          	sltiu	a3,a2,256
80000f60:	0016b693          	seqz	a3,a3
80000f64:	00369693          	slli	a3,a3,0x3
80000f68:	d45ff06f          	j	80000cac <__udivdi3+0x58>
80000f6c:	00000593          	li	a1,0
80000f70:	00001717          	auipc	a4,0x1
80000f74:	de070713          	addi	a4,a4,-544 # 80001d50 <__clz_tab>
80000f78:	00b70733          	add	a4,a4,a1
80000f7c:	00074483          	lbu	s1,0(a4)
80000f80:	00000693          	li	a3,0
80000f84:	02000713          	li	a4,32
80000f88:	00d484b3          	add	s1,s1,a3
80000f8c:	409706b3          	sub	a3,a4,s1
80000f90:	f09700e3          	beq	a4,s1,80000e90 <__udivdi3+0x23c>
80000f94:	00d61ab3          	sll	s5,a2,a3
80000f98:	01712623          	sw	s7,12(sp)
80000f9c:	010ad913          	srli	s2,s5,0x10
80000fa0:	0097dbb3          	srl	s7,a5,s1
80000fa4:	00090593          	mv	a1,s2
80000fa8:	00d797b3          	sll	a5,a5,a3
80000fac:	0099d4b3          	srl	s1,s3,s1
80000fb0:	000b8513          	mv	a0,s7
80000fb4:	00f4e4b3          	or	s1,s1,a5
80000fb8:	00d99433          	sll	s0,s3,a3
80000fbc:	010a9a13          	slli	s4,s5,0x10
80000fc0:	1c5000ef          	jal	80001984 <__hidden___udivsi3>
80000fc4:	00050b13          	mv	s6,a0
80000fc8:	010a5a13          	srli	s4,s4,0x10
80000fcc:	000b0593          	mv	a1,s6
80000fd0:	000a0513          	mv	a0,s4
80000fd4:	185000ef          	jal	80001958 <__mulsi3>
80000fd8:	00050993          	mv	s3,a0
80000fdc:	00090593          	mv	a1,s2
80000fe0:	000b8513          	mv	a0,s7
80000fe4:	1e9000ef          	jal	800019cc <__umodsi3>
80000fe8:	01051513          	slli	a0,a0,0x10
80000fec:	0104d793          	srli	a5,s1,0x10
80000ff0:	00a7e7b3          	or	a5,a5,a0
80000ff4:	0137fe63          	bgeu	a5,s3,80001010 <__udivdi3+0x3bc>
80000ff8:	00fa87b3          	add	a5,s5,a5
80000ffc:	fffb0713          	addi	a4,s6,-1
80001000:	2d57ea63          	bltu	a5,s5,800012d4 <__udivdi3+0x680>
80001004:	2d37f863          	bgeu	a5,s3,800012d4 <__udivdi3+0x680>
80001008:	ffeb0b13          	addi	s6,s6,-2
8000100c:	015787b3          	add	a5,a5,s5
80001010:	413789b3          	sub	s3,a5,s3
80001014:	00098513          	mv	a0,s3
80001018:	00090593          	mv	a1,s2
8000101c:	169000ef          	jal	80001984 <__hidden___udivsi3>
80001020:	00050b93          	mv	s7,a0
80001024:	000b8593          	mv	a1,s7
80001028:	000a0513          	mv	a0,s4
8000102c:	12d000ef          	jal	80001958 <__mulsi3>
80001030:	00050793          	mv	a5,a0
80001034:	00090593          	mv	a1,s2
80001038:	00098513          	mv	a0,s3
8000103c:	01049493          	slli	s1,s1,0x10
80001040:	00078993          	mv	s3,a5
80001044:	189000ef          	jal	800019cc <__umodsi3>
80001048:	0104d493          	srli	s1,s1,0x10
8000104c:	01051513          	slli	a0,a0,0x10
80001050:	00a4e4b3          	or	s1,s1,a0
80001054:	0134fe63          	bgeu	s1,s3,80001070 <__udivdi3+0x41c>
80001058:	009a84b3          	add	s1,s5,s1
8000105c:	fffb8793          	addi	a5,s7,-1
80001060:	2754e263          	bltu	s1,s5,800012c4 <__udivdi3+0x670>
80001064:	2734f063          	bgeu	s1,s3,800012c4 <__udivdi3+0x670>
80001068:	ffeb8b93          	addi	s7,s7,-2
8000106c:	015484b3          	add	s1,s1,s5
80001070:	010b1b13          	slli	s6,s6,0x10
80001074:	017b6b33          	or	s6,s6,s7
80001078:	413484b3          	sub	s1,s1,s3
8000107c:	00c12b83          	lw	s7,12(sp)
80001080:	e25ff06f          	j	80000ea4 <__udivdi3+0x250>
80001084:	1006b593          	sltiu	a1,a3,256
80001088:	0015b593          	seqz	a1,a1
8000108c:	00359593          	slli	a1,a1,0x3
80001090:	00b6d533          	srl	a0,a3,a1
80001094:	00001717          	auipc	a4,0x1
80001098:	cbc70713          	addi	a4,a4,-836 # 80001d50 <__clz_tab>
8000109c:	00a70733          	add	a4,a4,a0
800010a0:	00074703          	lbu	a4,0(a4)
800010a4:	02000513          	li	a0,32
800010a8:	00b70733          	add	a4,a4,a1
800010ac:	40e50bb3          	sub	s7,a0,a4
800010b0:	d8e506e3          	beq	a0,a4,80000e3c <__udivdi3+0x1e8>
800010b4:	017696b3          	sll	a3,a3,s7
800010b8:	01912223          	sw	s9,4(sp)
800010bc:	00e65cb3          	srl	s9,a2,a4
800010c0:	00dcecb3          	or	s9,s9,a3
800010c4:	01512a23          	sw	s5,20(sp)
800010c8:	01812423          	sw	s8,8(sp)
800010cc:	010cda93          	srli	s5,s9,0x10
800010d0:	00e7dc33          	srl	s8,a5,a4
800010d4:	000a8593          	mv	a1,s5
800010d8:	017797b3          	sll	a5,a5,s7
800010dc:	00e9d733          	srl	a4,s3,a4
800010e0:	000c0513          	mv	a0,s8
800010e4:	02812423          	sw	s0,40(sp)
800010e8:	02912223          	sw	s1,36(sp)
800010ec:	03212023          	sw	s2,32(sp)
800010f0:	00f764b3          	or	s1,a4,a5
800010f4:	01761933          	sll	s2,a2,s7
800010f8:	01412c23          	sw	s4,24(sp)
800010fc:	010c9b13          	slli	s6,s9,0x10
80001100:	085000ef          	jal	80001984 <__hidden___udivsi3>
80001104:	00050413          	mv	s0,a0
80001108:	010b5b13          	srli	s6,s6,0x10
8000110c:	00040593          	mv	a1,s0
80001110:	000b0513          	mv	a0,s6
80001114:	045000ef          	jal	80001958 <__mulsi3>
80001118:	00050a13          	mv	s4,a0
8000111c:	000a8593          	mv	a1,s5
80001120:	000c0513          	mv	a0,s8
80001124:	0a9000ef          	jal	800019cc <__umodsi3>
80001128:	01051513          	slli	a0,a0,0x10
8000112c:	0104d793          	srli	a5,s1,0x10
80001130:	00a7e7b3          	or	a5,a5,a0
80001134:	0147fe63          	bgeu	a5,s4,80001150 <__udivdi3+0x4fc>
80001138:	00fc87b3          	add	a5,s9,a5
8000113c:	fff40713          	addi	a4,s0,-1
80001140:	1997ee63          	bltu	a5,s9,800012dc <__udivdi3+0x688>
80001144:	1947fc63          	bgeu	a5,s4,800012dc <__udivdi3+0x688>
80001148:	ffe40413          	addi	s0,s0,-2
8000114c:	019787b3          	add	a5,a5,s9
80001150:	41478a33          	sub	s4,a5,s4
80001154:	000a0513          	mv	a0,s4
80001158:	000a8593          	mv	a1,s5
8000115c:	029000ef          	jal	80001984 <__hidden___udivsi3>
80001160:	00050c13          	mv	s8,a0
80001164:	000c0593          	mv	a1,s8
80001168:	000b0513          	mv	a0,s6
8000116c:	7ec000ef          	jal	80001958 <__mulsi3>
80001170:	00050793          	mv	a5,a0
80001174:	000a8593          	mv	a1,s5
80001178:	000a0513          	mv	a0,s4
8000117c:	00078a13          	mv	s4,a5
80001180:	04d000ef          	jal	800019cc <__umodsi3>
80001184:	01049713          	slli	a4,s1,0x10
80001188:	01075713          	srli	a4,a4,0x10
8000118c:	01051513          	slli	a0,a0,0x10
80001190:	00a76733          	or	a4,a4,a0
80001194:	01477e63          	bgeu	a4,s4,800011b0 <__udivdi3+0x55c>
80001198:	00ec8733          	add	a4,s9,a4
8000119c:	fffc0793          	addi	a5,s8,-1
800011a0:	13976663          	bltu	a4,s9,800012cc <__udivdi3+0x678>
800011a4:	13477463          	bgeu	a4,s4,800012cc <__udivdi3+0x678>
800011a8:	ffec0c13          	addi	s8,s8,-2
800011ac:	01970733          	add	a4,a4,s9
800011b0:	010c1793          	slli	a5,s8,0x10
800011b4:	01091813          	slli	a6,s2,0x10
800011b8:	01041413          	slli	s0,s0,0x10
800011bc:	0107d793          	srli	a5,a5,0x10
800011c0:	01085813          	srli	a6,a6,0x10
800011c4:	01846433          	or	s0,s0,s8
800011c8:	41470733          	sub	a4,a4,s4
800011cc:	01045313          	srli	t1,s0,0x10
800011d0:	00078513          	mv	a0,a5
800011d4:	01095913          	srli	s2,s2,0x10
800011d8:	00080593          	mv	a1,a6
800011dc:	77c000ef          	jal	80001958 <__mulsi3>
800011e0:	00050893          	mv	a7,a0
800011e4:	00090593          	mv	a1,s2
800011e8:	00078513          	mv	a0,a5
800011ec:	76c000ef          	jal	80001958 <__mulsi3>
800011f0:	00050793          	mv	a5,a0
800011f4:	00080593          	mv	a1,a6
800011f8:	00030513          	mv	a0,t1
800011fc:	75c000ef          	jal	80001958 <__mulsi3>
80001200:	00050813          	mv	a6,a0
80001204:	00090593          	mv	a1,s2
80001208:	00030513          	mv	a0,t1
8000120c:	74c000ef          	jal	80001958 <__mulsi3>
80001210:	010787b3          	add	a5,a5,a6
80001214:	0108d693          	srli	a3,a7,0x10
80001218:	00f687b3          	add	a5,a3,a5
8000121c:	0107f663          	bgeu	a5,a6,80001228 <__udivdi3+0x5d4>
80001220:	000106b7          	lui	a3,0x10
80001224:	00d50533          	add	a0,a0,a3
80001228:	0107d693          	srli	a3,a5,0x10
8000122c:	00a686b3          	add	a3,a3,a0
80001230:	06d76463          	bltu	a4,a3,80001298 <__udivdi3+0x644>
80001234:	04d70663          	beq	a4,a3,80001280 <__udivdi3+0x62c>
80001238:	00040513          	mv	a0,s0
8000123c:	02812403          	lw	s0,40(sp)
80001240:	02c12083          	lw	ra,44(sp)
80001244:	00000b13          	li	s6,0
80001248:	02412483          	lw	s1,36(sp)
8000124c:	02012903          	lw	s2,32(sp)
80001250:	01812a03          	lw	s4,24(sp)
80001254:	01412a83          	lw	s5,20(sp)
80001258:	00c12b83          	lw	s7,12(sp)
8000125c:	00812c03          	lw	s8,8(sp)
80001260:	00412c83          	lw	s9,4(sp)
80001264:	01c12983          	lw	s3,28(sp)
80001268:	000b0593          	mv	a1,s6
8000126c:	01012b03          	lw	s6,16(sp)
80001270:	03010113          	addi	sp,sp,48
80001274:	00008067          	ret
80001278:	00078993          	mv	s3,a5
8000127c:	b25ff06f          	j	80000da0 <__udivdi3+0x14c>
80001280:	01089893          	slli	a7,a7,0x10
80001284:	0108d893          	srli	a7,a7,0x10
80001288:	01079793          	slli	a5,a5,0x10
8000128c:	01799533          	sll	a0,s3,s7
80001290:	011787b3          	add	a5,a5,a7
80001294:	faf572e3          	bgeu	a0,a5,80001238 <__udivdi3+0x5e4>
80001298:	fff40513          	addi	a0,s0,-1
8000129c:	fa1ff06f          	j	8000123c <__udivdi3+0x5e8>
800012a0:	01000737          	lui	a4,0x1000
800012a4:	04e67c63          	bgeu	a2,a4,800012fc <__udivdi3+0x6a8>
800012a8:	01065593          	srli	a1,a2,0x10
800012ac:	01000693          	li	a3,16
800012b0:	bc1ff06f          	j	80000e70 <__udivdi3+0x21c>
800012b4:	00c12b83          	lw	s7,12(sp)
800012b8:	00000b13          	li	s6,0
800012bc:	00100513          	li	a0,1
800012c0:	b25ff06f          	j	80000de4 <__udivdi3+0x190>
800012c4:	00078b93          	mv	s7,a5
800012c8:	da9ff06f          	j	80001070 <__udivdi3+0x41c>
800012cc:	00078c13          	mv	s8,a5
800012d0:	ee1ff06f          	j	800011b0 <__udivdi3+0x55c>
800012d4:	00070b13          	mv	s6,a4
800012d8:	d39ff06f          	j	80001010 <__udivdi3+0x3bc>
800012dc:	00070413          	mv	s0,a4
800012e0:	e71ff06f          	j	80001150 <__udivdi3+0x4fc>
800012e4:	ffe98993          	addi	s3,s3,-2
800012e8:	015787b3          	add	a5,a5,s5
800012ec:	c09ff06f          	j	80000ef4 <__udivdi3+0x2a0>
800012f0:	ffe90913          	addi	s2,s2,-2
800012f4:	015787b3          	add	a5,a5,s5
800012f8:	a4dff06f          	j	80000d44 <__udivdi3+0xf0>
800012fc:	01865593          	srli	a1,a2,0x18
80001300:	01800693          	li	a3,24
80001304:	b6dff06f          	j	80000e70 <__udivdi3+0x21c>

80001308 <__umoddi3>:
__umoddi3():
80001308:	fd010113          	addi	sp,sp,-48
8000130c:	02112623          	sw	ra,44(sp)
80001310:	00050793          	mv	a5,a0
80001314:	00058713          	mv	a4,a1
80001318:	14069663          	bnez	a3,80001464 <__umoddi3+0x15c>
8000131c:	03212023          	sw	s2,32(sp)
80001320:	01412c23          	sw	s4,24(sp)
80001324:	02812423          	sw	s0,40(sp)
80001328:	02912223          	sw	s1,36(sp)
8000132c:	01312e23          	sw	s3,28(sp)
80001330:	01512a23          	sw	s5,20(sp)
80001334:	00060a13          	mv	s4,a2
80001338:	00050913          	mv	s2,a0
8000133c:	1ac5f263          	bgeu	a1,a2,800014e0 <__umoddi3+0x1d8>
80001340:	01612823          	sw	s6,16(sp)
80001344:	000106b7          	lui	a3,0x10
80001348:	00058993          	mv	s3,a1
8000134c:	26d66c63          	bltu	a2,a3,800015c4 <__umoddi3+0x2bc>
80001350:	010006b7          	lui	a3,0x1000
80001354:	01800593          	li	a1,24
80001358:	00d67463          	bgeu	a2,a3,80001360 <__umoddi3+0x58>
8000135c:	01000593          	li	a1,16
80001360:	00b65533          	srl	a0,a2,a1
80001364:	00001697          	auipc	a3,0x1
80001368:	9ec68693          	addi	a3,a3,-1556 # 80001d50 <__clz_tab>
8000136c:	00a686b3          	add	a3,a3,a0
80001370:	0006c683          	lbu	a3,0(a3)
80001374:	02000513          	li	a0,32
80001378:	00b686b3          	add	a3,a3,a1
8000137c:	40d504b3          	sub	s1,a0,a3
80001380:	00d50c63          	beq	a0,a3,80001398 <__umoddi3+0x90>
80001384:	009719b3          	sll	s3,a4,s1
80001388:	00d7d6b3          	srl	a3,a5,a3
8000138c:	0136e9b3          	or	s3,a3,s3
80001390:	00961a33          	sll	s4,a2,s1
80001394:	00979933          	sll	s2,a5,s1
80001398:	010a5a93          	srli	s5,s4,0x10
8000139c:	000a8593          	mv	a1,s5
800013a0:	00098513          	mv	a0,s3
800013a4:	010a1b13          	slli	s6,s4,0x10
800013a8:	5dc000ef          	jal	80001984 <__hidden___udivsi3>
800013ac:	010b5b13          	srli	s6,s6,0x10
800013b0:	000b0593          	mv	a1,s6
800013b4:	5a4000ef          	jal	80001958 <__mulsi3>
800013b8:	00050413          	mv	s0,a0
800013bc:	000a8593          	mv	a1,s5
800013c0:	00098513          	mv	a0,s3
800013c4:	608000ef          	jal	800019cc <__umodsi3>
800013c8:	01051513          	slli	a0,a0,0x10
800013cc:	01095793          	srli	a5,s2,0x10
800013d0:	00a7e7b3          	or	a5,a5,a0
800013d4:	0087f863          	bgeu	a5,s0,800013e4 <__umoddi3+0xdc>
800013d8:	00fa07b3          	add	a5,s4,a5
800013dc:	0147e463          	bltu	a5,s4,800013e4 <__umoddi3+0xdc>
800013e0:	5687e263          	bltu	a5,s0,80001944 <__umoddi3+0x63c>
800013e4:	40878433          	sub	s0,a5,s0
800013e8:	00040513          	mv	a0,s0
800013ec:	000a8593          	mv	a1,s5
800013f0:	594000ef          	jal	80001984 <__hidden___udivsi3>
800013f4:	000b0593          	mv	a1,s6
800013f8:	560000ef          	jal	80001958 <__mulsi3>
800013fc:	00050793          	mv	a5,a0
80001400:	000a8593          	mv	a1,s5
80001404:	00040513          	mv	a0,s0
80001408:	00078413          	mv	s0,a5
8000140c:	5c0000ef          	jal	800019cc <__umodsi3>
80001410:	01091793          	slli	a5,s2,0x10
80001414:	0107d793          	srli	a5,a5,0x10
80001418:	01051513          	slli	a0,a0,0x10
8000141c:	00a7e7b3          	or	a5,a5,a0
80001420:	0087f863          	bgeu	a5,s0,80001430 <__umoddi3+0x128>
80001424:	00fa07b3          	add	a5,s4,a5
80001428:	0147e463          	bltu	a5,s4,80001430 <__umoddi3+0x128>
8000142c:	5087e463          	bltu	a5,s0,80001934 <__umoddi3+0x62c>
80001430:	01012b03          	lw	s6,16(sp)
80001434:	408787b3          	sub	a5,a5,s0
80001438:	0097d533          	srl	a0,a5,s1
8000143c:	02812403          	lw	s0,40(sp)
80001440:	02412483          	lw	s1,36(sp)
80001444:	02012903          	lw	s2,32(sp)
80001448:	01c12983          	lw	s3,28(sp)
8000144c:	01812a03          	lw	s4,24(sp)
80001450:	01412a83          	lw	s5,20(sp)
80001454:	00000593          	li	a1,0
80001458:	02c12083          	lw	ra,44(sp)
8000145c:	03010113          	addi	sp,sp,48
80001460:	00008067          	ret
80001464:	00050893          	mv	a7,a0
80001468:	fed5e8e3          	bltu	a1,a3,80001458 <__umoddi3+0x150>
8000146c:	03212023          	sw	s2,32(sp)
80001470:	01312e23          	sw	s3,28(sp)
80001474:	00010537          	lui	a0,0x10
80001478:	24a6ea63          	bltu	a3,a0,800016cc <__umoddi3+0x3c4>
8000147c:	01000837          	lui	a6,0x1000
80001480:	01800513          	li	a0,24
80001484:	0106f463          	bgeu	a3,a6,8000148c <__umoddi3+0x184>
80001488:	01000513          	li	a0,16
8000148c:	00001817          	auipc	a6,0x1
80001490:	8c480813          	addi	a6,a6,-1852 # 80001d50 <__clz_tab>
80001494:	00a6d333          	srl	t1,a3,a0
80001498:	00680833          	add	a6,a6,t1
8000149c:	00084983          	lbu	s3,0(a6)
800014a0:	02000813          	li	a6,32
800014a4:	00a989b3          	add	s3,s3,a0
800014a8:	41380933          	sub	s2,a6,s3
800014ac:	25381863          	bne	a6,s3,800016fc <__umoddi3+0x3f4>
800014b0:	00e6e463          	bltu	a3,a4,800014b8 <__umoddi3+0x1b0>
800014b4:	00c7ea63          	bltu	a5,a2,800014c8 <__umoddi3+0x1c0>
800014b8:	40c788b3          	sub	a7,a5,a2
800014bc:	0117b5b3          	sltu	a1,a5,a7
800014c0:	40d706b3          	sub	a3,a4,a3
800014c4:	40b685b3          	sub	a1,a3,a1
800014c8:	02c12083          	lw	ra,44(sp)
800014cc:	02012903          	lw	s2,32(sp)
800014d0:	01c12983          	lw	s3,28(sp)
800014d4:	00088513          	mv	a0,a7
800014d8:	03010113          	addi	sp,sp,48
800014dc:	00008067          	ret
800014e0:	0e060a63          	beqz	a2,800015d4 <__umoddi3+0x2cc>
800014e4:	000106b7          	lui	a3,0x10
800014e8:	42d67463          	bgeu	a2,a3,80001910 <__umoddi3+0x608>
800014ec:	10063593          	sltiu	a1,a2,256
800014f0:	0015b593          	seqz	a1,a1
800014f4:	00359593          	slli	a1,a1,0x3
800014f8:	00b65533          	srl	a0,a2,a1
800014fc:	00001697          	auipc	a3,0x1
80001500:	85468693          	addi	a3,a3,-1964 # 80001d50 <__clz_tab>
80001504:	00a686b3          	add	a3,a3,a0
80001508:	0006c983          	lbu	s3,0(a3)
8000150c:	02000693          	li	a3,32
80001510:	00b989b3          	add	s3,s3,a1
80001514:	413684b3          	sub	s1,a3,s3
80001518:	0f369263          	bne	a3,s3,800015fc <__umoddi3+0x2f4>
8000151c:	01061413          	slli	s0,a2,0x10
80001520:	40c709b3          	sub	s3,a4,a2
80001524:	01065a93          	srli	s5,a2,0x10
80001528:	01045413          	srli	s0,s0,0x10
8000152c:	000a8593          	mv	a1,s5
80001530:	00098513          	mv	a0,s3
80001534:	450000ef          	jal	80001984 <__hidden___udivsi3>
80001538:	00040593          	mv	a1,s0
8000153c:	41c000ef          	jal	80001958 <__mulsi3>
80001540:	00050793          	mv	a5,a0
80001544:	000a8593          	mv	a1,s5
80001548:	00098513          	mv	a0,s3
8000154c:	00078993          	mv	s3,a5
80001550:	47c000ef          	jal	800019cc <__umodsi3>
80001554:	01051513          	slli	a0,a0,0x10
80001558:	01095793          	srli	a5,s2,0x10
8000155c:	00a7e7b3          	or	a5,a5,a0
80001560:	0137f863          	bgeu	a5,s3,80001570 <__umoddi3+0x268>
80001564:	00fa07b3          	add	a5,s4,a5
80001568:	0147e463          	bltu	a5,s4,80001570 <__umoddi3+0x268>
8000156c:	3d37e863          	bltu	a5,s3,8000193c <__umoddi3+0x634>
80001570:	413789b3          	sub	s3,a5,s3
80001574:	000a8593          	mv	a1,s5
80001578:	00098513          	mv	a0,s3
8000157c:	408000ef          	jal	80001984 <__hidden___udivsi3>
80001580:	00040593          	mv	a1,s0
80001584:	3d4000ef          	jal	80001958 <__mulsi3>
80001588:	00050413          	mv	s0,a0
8000158c:	000a8593          	mv	a1,s5
80001590:	00098513          	mv	a0,s3
80001594:	438000ef          	jal	800019cc <__umodsi3>
80001598:	01091913          	slli	s2,s2,0x10
8000159c:	01095913          	srli	s2,s2,0x10
800015a0:	01051793          	slli	a5,a0,0x10
800015a4:	00f967b3          	or	a5,s2,a5
800015a8:	0087fa63          	bgeu	a5,s0,800015bc <__umoddi3+0x2b4>
800015ac:	00fa07b3          	add	a5,s4,a5
800015b0:	0147e663          	bltu	a5,s4,800015bc <__umoddi3+0x2b4>
800015b4:	0087f463          	bgeu	a5,s0,800015bc <__umoddi3+0x2b4>
800015b8:	014787b3          	add	a5,a5,s4
800015bc:	408787b3          	sub	a5,a5,s0
800015c0:	e79ff06f          	j	80001438 <__umoddi3+0x130>
800015c4:	10063593          	sltiu	a1,a2,256
800015c8:	0015b593          	seqz	a1,a1
800015cc:	00359593          	slli	a1,a1,0x3
800015d0:	d91ff06f          	j	80001360 <__umoddi3+0x58>
800015d4:	00000513          	li	a0,0
800015d8:	00000697          	auipc	a3,0x0
800015dc:	77868693          	addi	a3,a3,1912 # 80001d50 <__clz_tab>
800015e0:	00a686b3          	add	a3,a3,a0
800015e4:	0006c983          	lbu	s3,0(a3)
800015e8:	00000593          	li	a1,0
800015ec:	02000693          	li	a3,32
800015f0:	00b989b3          	add	s3,s3,a1
800015f4:	413684b3          	sub	s1,a3,s3
800015f8:	f33682e3          	beq	a3,s3,8000151c <__umoddi3+0x214>
800015fc:	00961a33          	sll	s4,a2,s1
80001600:	01712623          	sw	s7,12(sp)
80001604:	010a5a93          	srli	s5,s4,0x10
80001608:	01375bb3          	srl	s7,a4,s3
8000160c:	000a8593          	mv	a1,s5
80001610:	0137d9b3          	srl	s3,a5,s3
80001614:	00971733          	sll	a4,a4,s1
80001618:	000b8513          	mv	a0,s7
8000161c:	010a1413          	slli	s0,s4,0x10
80001620:	00e9e9b3          	or	s3,s3,a4
80001624:	00979933          	sll	s2,a5,s1
80001628:	01612823          	sw	s6,16(sp)
8000162c:	01045413          	srli	s0,s0,0x10
80001630:	354000ef          	jal	80001984 <__hidden___udivsi3>
80001634:	00040593          	mv	a1,s0
80001638:	320000ef          	jal	80001958 <__mulsi3>
8000163c:	00050b13          	mv	s6,a0
80001640:	000a8593          	mv	a1,s5
80001644:	000b8513          	mv	a0,s7
80001648:	384000ef          	jal	800019cc <__umodsi3>
8000164c:	01051513          	slli	a0,a0,0x10
80001650:	0109d793          	srli	a5,s3,0x10
80001654:	00a7e7b3          	or	a5,a5,a0
80001658:	0167fa63          	bgeu	a5,s6,8000166c <__umoddi3+0x364>
8000165c:	00fa07b3          	add	a5,s4,a5
80001660:	0147e663          	bltu	a5,s4,8000166c <__umoddi3+0x364>
80001664:	0167f463          	bgeu	a5,s6,8000166c <__umoddi3+0x364>
80001668:	014787b3          	add	a5,a5,s4
8000166c:	41678b33          	sub	s6,a5,s6
80001670:	000b0513          	mv	a0,s6
80001674:	000a8593          	mv	a1,s5
80001678:	30c000ef          	jal	80001984 <__hidden___udivsi3>
8000167c:	00040593          	mv	a1,s0
80001680:	2d8000ef          	jal	80001958 <__mulsi3>
80001684:	00050793          	mv	a5,a0
80001688:	000a8593          	mv	a1,s5
8000168c:	000b0513          	mv	a0,s6
80001690:	01099993          	slli	s3,s3,0x10
80001694:	00078b13          	mv	s6,a5
80001698:	334000ef          	jal	800019cc <__umodsi3>
8000169c:	0109d993          	srli	s3,s3,0x10
800016a0:	01051513          	slli	a0,a0,0x10
800016a4:	00a9e9b3          	or	s3,s3,a0
800016a8:	0169fa63          	bgeu	s3,s6,800016bc <__umoddi3+0x3b4>
800016ac:	013a09b3          	add	s3,s4,s3
800016b0:	0149e663          	bltu	s3,s4,800016bc <__umoddi3+0x3b4>
800016b4:	0169f463          	bgeu	s3,s6,800016bc <__umoddi3+0x3b4>
800016b8:	014989b3          	add	s3,s3,s4
800016bc:	416989b3          	sub	s3,s3,s6
800016c0:	00c12b83          	lw	s7,12(sp)
800016c4:	01012b03          	lw	s6,16(sp)
800016c8:	e65ff06f          	j	8000152c <__umoddi3+0x224>
800016cc:	1006b513          	sltiu	a0,a3,256
800016d0:	00153513          	seqz	a0,a0
800016d4:	00351513          	slli	a0,a0,0x3
800016d8:	00000817          	auipc	a6,0x0
800016dc:	67880813          	addi	a6,a6,1656 # 80001d50 <__clz_tab>
800016e0:	00a6d333          	srl	t1,a3,a0
800016e4:	00680833          	add	a6,a6,t1
800016e8:	00084983          	lbu	s3,0(a6)
800016ec:	02000813          	li	a6,32
800016f0:	00a989b3          	add	s3,s3,a0
800016f4:	41380933          	sub	s2,a6,s3
800016f8:	db380ce3          	beq	a6,s3,800014b0 <__umoddi3+0x1a8>
800016fc:	01612823          	sw	s6,16(sp)
80001700:	012696b3          	sll	a3,a3,s2
80001704:	01365b33          	srl	s6,a2,s3
80001708:	00db6b33          	or	s6,s6,a3
8000170c:	01712623          	sw	s7,12(sp)
80001710:	01a12023          	sw	s10,0(sp)
80001714:	010b5b93          	srli	s7,s6,0x10
80001718:	01375d33          	srl	s10,a4,s3
8000171c:	0137d6b3          	srl	a3,a5,s3
80001720:	01271733          	sll	a4,a4,s2
80001724:	000b8593          	mv	a1,s7
80001728:	000d0513          	mv	a0,s10
8000172c:	02812423          	sw	s0,40(sp)
80001730:	02912223          	sw	s1,36(sp)
80001734:	01261433          	sll	s0,a2,s2
80001738:	012794b3          	sll	s1,a5,s2
8000173c:	01412c23          	sw	s4,24(sp)
80001740:	01512a23          	sw	s5,20(sp)
80001744:	00e6ea33          	or	s4,a3,a4
80001748:	01812423          	sw	s8,8(sp)
8000174c:	01912223          	sw	s9,4(sp)
80001750:	010b1c13          	slli	s8,s6,0x10
80001754:	230000ef          	jal	80001984 <__hidden___udivsi3>
80001758:	00050a93          	mv	s5,a0
8000175c:	010c5c13          	srli	s8,s8,0x10
80001760:	000a8593          	mv	a1,s5
80001764:	000c0513          	mv	a0,s8
80001768:	1f0000ef          	jal	80001958 <__mulsi3>
8000176c:	00050c93          	mv	s9,a0
80001770:	000b8593          	mv	a1,s7
80001774:	000d0513          	mv	a0,s10
80001778:	254000ef          	jal	800019cc <__umodsi3>
8000177c:	01051513          	slli	a0,a0,0x10
80001780:	010a5793          	srli	a5,s4,0x10
80001784:	00a7e7b3          	or	a5,a5,a0
80001788:	0197fe63          	bgeu	a5,s9,800017a4 <__umoddi3+0x49c>
8000178c:	00fb07b3          	add	a5,s6,a5
80001790:	fffa8713          	addi	a4,s5,-1
80001794:	1967ec63          	bltu	a5,s6,8000192c <__umoddi3+0x624>
80001798:	1997fa63          	bgeu	a5,s9,8000192c <__umoddi3+0x624>
8000179c:	ffea8a93          	addi	s5,s5,-2
800017a0:	016787b3          	add	a5,a5,s6
800017a4:	41978cb3          	sub	s9,a5,s9
800017a8:	000b8593          	mv	a1,s7
800017ac:	000c8513          	mv	a0,s9
800017b0:	1d4000ef          	jal	80001984 <__hidden___udivsi3>
800017b4:	00050d13          	mv	s10,a0
800017b8:	000d0593          	mv	a1,s10
800017bc:	000c0513          	mv	a0,s8
800017c0:	198000ef          	jal	80001958 <__mulsi3>
800017c4:	00050793          	mv	a5,a0
800017c8:	000b8593          	mv	a1,s7
800017cc:	000c8513          	mv	a0,s9
800017d0:	00078b93          	mv	s7,a5
800017d4:	1f8000ef          	jal	800019cc <__umodsi3>
800017d8:	010a1713          	slli	a4,s4,0x10
800017dc:	01075713          	srli	a4,a4,0x10
800017e0:	01051513          	slli	a0,a0,0x10
800017e4:	00a766b3          	or	a3,a4,a0
800017e8:	0176fe63          	bgeu	a3,s7,80001804 <__umoddi3+0x4fc>
800017ec:	00db06b3          	add	a3,s6,a3
800017f0:	fffd0793          	addi	a5,s10,-1
800017f4:	1366e863          	bltu	a3,s6,80001924 <__umoddi3+0x61c>
800017f8:	1376f663          	bgeu	a3,s7,80001924 <__umoddi3+0x61c>
800017fc:	ffed0d13          	addi	s10,s10,-2
80001800:	016686b3          	add	a3,a3,s6
80001804:	010d1893          	slli	a7,s10,0x10
80001808:	01041313          	slli	t1,s0,0x10
8000180c:	010a9793          	slli	a5,s5,0x10
80001810:	0108d893          	srli	a7,a7,0x10
80001814:	01035313          	srli	t1,t1,0x10
80001818:	01a7e7b3          	or	a5,a5,s10
8000181c:	0107d793          	srli	a5,a5,0x10
80001820:	41768733          	sub	a4,a3,s7
80001824:	00088513          	mv	a0,a7
80001828:	00030593          	mv	a1,t1
8000182c:	01045e13          	srli	t3,s0,0x10
80001830:	128000ef          	jal	80001958 <__mulsi3>
80001834:	00050813          	mv	a6,a0
80001838:	000e0593          	mv	a1,t3
8000183c:	00088513          	mv	a0,a7
80001840:	118000ef          	jal	80001958 <__mulsi3>
80001844:	00050893          	mv	a7,a0
80001848:	00030593          	mv	a1,t1
8000184c:	00078513          	mv	a0,a5
80001850:	108000ef          	jal	80001958 <__mulsi3>
80001854:	00050313          	mv	t1,a0
80001858:	000e0593          	mv	a1,t3
8000185c:	00078513          	mv	a0,a5
80001860:	0f8000ef          	jal	80001958 <__mulsi3>
80001864:	006888b3          	add	a7,a7,t1
80001868:	01085793          	srli	a5,a6,0x10
8000186c:	011787b3          	add	a5,a5,a7
80001870:	0067f663          	bgeu	a5,t1,8000187c <__umoddi3+0x574>
80001874:	000106b7          	lui	a3,0x10
80001878:	00d50533          	add	a0,a0,a3
8000187c:	0107d693          	srli	a3,a5,0x10
80001880:	01081813          	slli	a6,a6,0x10
80001884:	01085813          	srli	a6,a6,0x10
80001888:	01079793          	slli	a5,a5,0x10
8000188c:	00a686b3          	add	a3,a3,a0
80001890:	010787b3          	add	a5,a5,a6
80001894:	06d76263          	bltu	a4,a3,800018f8 <__umoddi3+0x5f0>
80001898:	04d70e63          	beq	a4,a3,800018f4 <__umoddi3+0x5ec>
8000189c:	40f487b3          	sub	a5,s1,a5
800018a0:	00f4b4b3          	sltu	s1,s1,a5
800018a4:	02812403          	lw	s0,40(sp)
800018a8:	02c12083          	lw	ra,44(sp)
800018ac:	40d705b3          	sub	a1,a4,a3
800018b0:	409585b3          	sub	a1,a1,s1
800018b4:	01359733          	sll	a4,a1,s3
800018b8:	0127d7b3          	srl	a5,a5,s2
800018bc:	02412483          	lw	s1,36(sp)
800018c0:	01c12983          	lw	s3,28(sp)
800018c4:	01812a03          	lw	s4,24(sp)
800018c8:	01412a83          	lw	s5,20(sp)
800018cc:	01012b03          	lw	s6,16(sp)
800018d0:	00c12b83          	lw	s7,12(sp)
800018d4:	00812c03          	lw	s8,8(sp)
800018d8:	00412c83          	lw	s9,4(sp)
800018dc:	00012d03          	lw	s10,0(sp)
800018e0:	0125d5b3          	srl	a1,a1,s2
800018e4:	00f76533          	or	a0,a4,a5
800018e8:	02012903          	lw	s2,32(sp)
800018ec:	03010113          	addi	sp,sp,48
800018f0:	00008067          	ret
800018f4:	faf4f4e3          	bgeu	s1,a5,8000189c <__umoddi3+0x594>
800018f8:	40878433          	sub	s0,a5,s0
800018fc:	0087b7b3          	sltu	a5,a5,s0
80001900:	016787b3          	add	a5,a5,s6
80001904:	40f686b3          	sub	a3,a3,a5
80001908:	00040793          	mv	a5,s0
8000190c:	f91ff06f          	j	8000189c <__umoddi3+0x594>
80001910:	010006b7          	lui	a3,0x1000
80001914:	02d67c63          	bgeu	a2,a3,8000194c <__umoddi3+0x644>
80001918:	01065513          	srli	a0,a2,0x10
8000191c:	01000593          	li	a1,16
80001920:	bddff06f          	j	800014fc <__umoddi3+0x1f4>
80001924:	00078d13          	mv	s10,a5
80001928:	eddff06f          	j	80001804 <__umoddi3+0x4fc>
8000192c:	00070a93          	mv	s5,a4
80001930:	e75ff06f          	j	800017a4 <__umoddi3+0x49c>
80001934:	014787b3          	add	a5,a5,s4
80001938:	af9ff06f          	j	80001430 <__umoddi3+0x128>
8000193c:	014787b3          	add	a5,a5,s4
80001940:	c31ff06f          	j	80001570 <__umoddi3+0x268>
80001944:	014787b3          	add	a5,a5,s4
80001948:	a9dff06f          	j	800013e4 <__umoddi3+0xdc>
8000194c:	01865513          	srli	a0,a2,0x18
80001950:	01800593          	li	a1,24
80001954:	ba9ff06f          	j	800014fc <__umoddi3+0x1f4>

80001958 <__mulsi3>:
__mulsi3():
80001958:	00050613          	mv	a2,a0
8000195c:	00000513          	li	a0,0
80001960:	0015f693          	andi	a3,a1,1
80001964:	00068463          	beqz	a3,8000196c <__mulsi3+0x14>
80001968:	00c50533          	add	a0,a0,a2
8000196c:	0015d593          	srli	a1,a1,0x1
80001970:	00161613          	slli	a2,a2,0x1
80001974:	fe0596e3          	bnez	a1,80001960 <__mulsi3+0x8>
80001978:	00008067          	ret

8000197c <__divsi3>:
__divsi3():
8000197c:	06054063          	bltz	a0,800019dc <__umodsi3+0x10>
80001980:	0605c663          	bltz	a1,800019ec <__umodsi3+0x20>

80001984 <__hidden___udivsi3>:
80001984:	00058613          	mv	a2,a1
80001988:	00050593          	mv	a1,a0
8000198c:	fff00513          	li	a0,-1
80001990:	02060c63          	beqz	a2,800019c8 <__hidden___udivsi3+0x44>
80001994:	00100693          	li	a3,1
80001998:	00b67a63          	bgeu	a2,a1,800019ac <__hidden___udivsi3+0x28>
8000199c:	00c05863          	blez	a2,800019ac <__hidden___udivsi3+0x28>
800019a0:	00161613          	slli	a2,a2,0x1
800019a4:	00169693          	slli	a3,a3,0x1
800019a8:	feb66ae3          	bltu	a2,a1,8000199c <__hidden___udivsi3+0x18>
800019ac:	00000513          	li	a0,0
800019b0:	00c5e663          	bltu	a1,a2,800019bc <__hidden___udivsi3+0x38>
800019b4:	40c585b3          	sub	a1,a1,a2
800019b8:	00d56533          	or	a0,a0,a3
800019bc:	0016d693          	srli	a3,a3,0x1
800019c0:	00165613          	srli	a2,a2,0x1
800019c4:	fe0696e3          	bnez	a3,800019b0 <__hidden___udivsi3+0x2c>
800019c8:	00008067          	ret

800019cc <__umodsi3>:
800019cc:	00008293          	mv	t0,ra
800019d0:	fb5ff0ef          	jal	80001984 <__hidden___udivsi3>
800019d4:	00058513          	mv	a0,a1
800019d8:	00028067          	jr	t0 # 80000afc <memset+0xb4>
800019dc:	40a00533          	neg	a0,a0
800019e0:	00b04863          	bgtz	a1,800019f0 <__umodsi3+0x24>
800019e4:	40b005b3          	neg	a1,a1
800019e8:	f9dff06f          	j	80001984 <__hidden___udivsi3>
800019ec:	40b005b3          	neg	a1,a1
800019f0:	00008293          	mv	t0,ra
800019f4:	f91ff0ef          	jal	80001984 <__hidden___udivsi3>
800019f8:	40a00533          	neg	a0,a0
800019fc:	00028067          	jr	t0

80001a00 <__modsi3>:
__modsi3():
80001a00:	00008293          	mv	t0,ra
80001a04:	0005ca63          	bltz	a1,80001a18 <__modsi3+0x18>
80001a08:	00054c63          	bltz	a0,80001a20 <__modsi3+0x20>
80001a0c:	f79ff0ef          	jal	80001984 <__hidden___udivsi3>
80001a10:	00058513          	mv	a0,a1
80001a14:	00028067          	jr	t0
80001a18:	40b005b3          	neg	a1,a1
80001a1c:	fe0558e3          	bgez	a0,80001a0c <__modsi3+0xc>
80001a20:	40a00533          	neg	a0,a0
80001a24:	f61ff0ef          	jal	80001984 <__hidden___udivsi3>
80001a28:	40b00533          	neg	a0,a1
80001a2c:	00028067          	jr	t0
